Archive member included because of file (symbol)

d:/MinGW-4.7.1/arm-elf/lib\libc.a(lib_a-strcpy.o)
                              ./Debug/fat_api_fat_api.c.o (strcpy)
d:/MinGW-4.7.1/arm-elf/lib\libc.a(lib_a-strlen.o)
                              ./Debug/fat_api_fat_api.c.o (strlen)
d:/MinGW-4.7.1/lib/gcc/arm-elf/4.6.0\libgcc.a(_udivsi3.o)
                              ./Debug/sensor_sensor.c.o (__udivsi3)
d:/MinGW-4.7.1/lib/gcc/arm-elf/4.6.0\libgcc.a(_divsi3.o)
                              ./Debug/tvout_tvout.c.o (__divsi3)
d:/MinGW-4.7.1/lib/gcc/arm-elf/4.6.0\libgcc.a(_umodsi3.o)
                              ./Debug/sys_sys.c.o (__umodsi3)
d:/MinGW-4.7.1/lib/gcc/arm-elf/4.6.0\libgcc.a(_dvmd_tls.o)
                              d:/MinGW-4.7.1/lib/gcc/arm-elf/4.6.0\libgcc.a(_udivsi3.o) (__div0)
libs\libjpeg.a(jpeg_enc.o)    ./Debug/audio_adc_audio_adc.c.o (g_stcJpegInfo)
libs\libjpeg.a(jpeg_isr.o)    ./Debug/int_int.c.o (jpeg_Isr)
libs\libjpeg.a(jpeg_dec.o)    ./Debug/play_play_picture.c.o (jpdec_flag)
libs\libjpeg.a(jpeg_linebuffer.o)
                              ./Debug/fat_api_fat_api.c.o (jpeg_LineBuffer_Start)
libs\libfs.a(fat_format.o)    ./Debug/menu_menu_setting.c.o (format_filesystem)
libs\libfs.a(ff.o)            ./Debug/fat_api_fat_api.c.o (clust2sect)
libs\libfs.a(diskio.o)        libs\libfs.a(ff.o) (get_fattime)
libs\libusb.a(usb_device_mass.o)
                              ./Debug/task_task_usb_device.c.o (rbc_process)
libs\libusb.a(usb_dev_audio.o)
                              ./Debug/audio_adc_audio_adc.c.o (UacSampFreq)
libs\libusb.a(usb_device_enum.o)
                              ./Debug/task_task_usb_device.c.o (usb_device_init)
libs\libusb.a(usb.o)          libs\libusb.a(usb_device_mass.o) (usb_dma_dpk)
libs\libusb.a(usb_device_video.o)
                              libs\libusb.a(usb_device_enum.o) (uvc_video_probe_control)
libs\libusb.a(update.o)       libs\libusb.a(usb_device_mass.o) (.Lback2mrom)
libs\libstartup.a(cpu.o)      ./Debug/csi_csi_timeinfo.c.o (CleanDCacheRegion)
libs\libstartup.a(lowPower.o)
                              ./Debug/task_task_holdMode.c.o (cpu_hold_mode)
libs\libstartup.a(startup.o)  (_start)
libs\libstartup.a(BootSec.o)  ./Debug/startup_spi_boot_cfg.S.o (.bootsect)
libs\libfat.a(fat.o)          ./Debug/fat_api_fat_api.c.o (WriteVideoInfo)
libs\libfat.a(fat_fileorder.o)
                              ./Debug/fat_api_fat_api.c.o (RecFileNum)
libs\libsd.a(sd.o)            ./Debug/sd_sd_ext.c.o (bsd_Reset)

Allocating common symbols
Common symbol       size              file

u32csi_Dma_Size_H   0x4               ./Debug/csi_csi.c.o
g_VideoFrameBuf     0x10              ./Debug/play_avi_player.c.o
u32csi_Dma_Size_V   0x4               ./Debug/csi_csi.c.o
YUYVSrcBuff         0x4               libs\libjpeg.a(jpeg_linebuffer.o)
g_stcJpegInfo       0x78              libs\libjpeg.a(jpeg_enc.o)
OSD1Inf             0x14              ./Debug/lcd_osd.c.o
usb_EP1_class       0x1               ./Debug/audio_adc_audio_adc.c.o
g_AudioIndexFIFO    0x1c              ./Debug/play_avi_player.c.o
usbep3buf           0x4               libs\libusb.a(usb_dev_audio.o)
g_cbw_cb            0x10              libs\libusb.a(usb_device_mass.o)
usb_varm            0x38              ./Debug/audio_adc_audio_adc.c.o
bRecording_Display_Flag
                    0x1               ./Debug/fat_api_fat_api.c.o
current_DMAADDR     0x4               libs\libusb.a(usb_device_video.o)
g_DecodeDispFrameBuf
                    0x10              ./Debug/play_avi_player.c.o
ep0_rx_buf          0x40              libs\libusb.a(usb_device_enum.o)
dac_block_flag      0x1               ./Debug/audio_dac_audio_dac.c.o
TimerInfoPixelBuf   0x4               ./Debug/csi_csi_timeinfo.c.o
seg_info            0x8               ./Debug/audio_adc_audio_adc.c.o
video_start         0x1               libs\libusb.a(usb_device_enum.o)
dev_ctl             0x14              ./Debug/audio_adc_audio_adc.c.o
g_cbw_transfer_len  0x4               libs\libusb.a(usb_device_mass.o)
csi_buf_point       0x1               ./Debug/audio_adc_audio_adc.c.o
u32Test_1msCnt      0x4               ./Debug/timer_timer_isr.c.o
play_file_num       0x4               ./Debug/task_task_play.c.o
delFS               0x240             ./Debug/fat_api_fat_api.c.o
u32Delay_1msCnt     0x4               ./Debug/timer_timer_isr.c.o
g_AudioFrameBuf     0x10              ./Debug/play_avi_player.c.o
usb_type            0x1               ./Debug/audio_adc_audio_adc.c.o
g_DispFrameBuf      0x10              ./Debug/play_avi_player.c.o
g_AudioIndexInfo    0x14              ./Debug/play_avi_player.c.o
sd_dis_flag         0x1               ./Debug/audio_adc_audio_adc.c.o
work_fatfs          0x240             ./Debug/fat_api_fat_api.c.o
u32jpegSize_V       0x4               libs\libjpeg.a(jpeg_dec.o)
sam_audio_buffer_ptr
                    0x4               libs\libjpeg.a(jpeg_enc.o)
adc_step            0x1               ./Debug/msg_adkey.c.o
p_enp               0x4               ./Debug/audio_adc_audio_adc.c.o
usb_enum_type       0x1               ./Debug/audio_adc_audio_adc.c.o
g_VideoIndexInfo    0x14              ./Debug/play_avi_player.c.o
bMD_Flag            0x1               ./Debug/csi_csi_isr.c.o
u32sdr_Buff_Len     0x4               ./Debug/csi_csi.c.o
delCLST             0x4               ./Debug/fat_api_fat_api.c.o
JpegFrame_locat_fifo
                    0x10              libs\libjpeg.a(jpeg_enc.o)
UacSampFreq         0x3               libs\libusb.a(usb_dev_audio.o)
g_AudioIndexBuf     0x14              ./Debug/play_avi_player.c.o
bMD_StopVideo_Flag  0x1               ./Debug/csi_csi.c.o
bs_buf              0x40              ./Debug/audio_adc_audio_adc.c.o
Gsensor_ID          0x1               ./Debug/g_sensor_g_sensor.c.o
RecFileNum          0xfa2             libs\libfat.a(fat_fileorder.o)
blcd_FrameEnd_Flag  0x1               ./Debug/lcd_lcd_driver.c.o
udev                0x18              ./Debug/audio_adc_audio_adc.c.o
t_record_video      0xc               ./Debug/task_task_video.c.o
u32MDCnt            0x4               ./Debug/csi_csi.c.o
blcd_writeback_Flag
                    0x1               ./Debug/lcd_lcd_driver.c.o
u8Databytnum        0x1               ./Debug/sensor_sensor.c.o
cur_menu            0x8               ./Debug/menu_menu_display.c.o
UacVolCtrlCur       0x2               libs\libusb.a(usb_dev_audio.o)
p_dev               0x4               ./Debug/audio_adc_audio_adc.c.o
device_online       0x2               ./Debug/audio_adc_audio_adc.c.o
g_csw_status        0x1               libs\libusb.a(usb_device_mass.o)
filename            0x1c              ./Debug/fat_api_fat_api.c.o
bcsi_FrameEndFlag   0x1               ./Debug/csi_csi_isr.c.o
g_bSenseKey         0x1               libs\libusb.a(usb_device_mass.o)
pVideoBuf           0x4               libs\libusb.a(usb_device_video.o)
csr0_tmp            0x1               libs\libusb.a(usb_device_enum.o)
usb_dev_req         0x8               ./Debug/audio_adc_audio_adc.c.o
uvc_video_probe_commit_value
                    0x1a              libs\libusb.a(usb_device_video.o)
WriteBack_cnt       0x4               libs\libjpeg.a(jpeg_linebuffer.o)
g_DecodeDispFrameFIFO
                    0x1c              ./Debug/play_avi_player.c.o
CsiLastPacketPending
                    0x1               libs\libusb.a(usb_device_video.o)
removeChain_outptr  0x1               libs\libfs.a(ff.o)
gImage_palette      0x400             ./Debug/lcd_osd.c.o
g_DecodeVideoFrameBuf
                    0x10              ./Debug/play_avi_player.c.o
g_DecodeVideoFrameFIFO
                    0x1c              ./Debug/play_avi_player.c.o
lastPacketSize      0x4               libs\libusb.a(usb_device_video.o)
tpbulk_block        0x40              ./Debug/audio_adc_audio_adc.c.o
ep3buf              0x40              ./Debug/audio_adc_audio_adc.c.o
csi_timeout         0x4               ./Debug/csi_csi.c.o
csibufflag          0x1               libs\libusb.a(usb_device_video.o)
u8SensorreadID      0x1               ./Debug/sensor_sensor.c.o
Total_record_timer_info
                    0x8               ./Debug/task_task_video.c.o
m_CsiFrameDataPos   0x4               libs\libusb.a(usb_device_video.o)
tick                0x1               libs\libusb.a(usb_device_enum.o)
g_csw_data_residue  0x4               libs\libusb.a(usb_device_mass.o)
g_stcSDInfo         0x14              libs\libsd.a(sd.o)
pSetReqCallback     0x4               ./Debug/audio_adc_audio_adc.c.o
TimeInfoBuff        0x13              ./Debug/csi_csi_timeinfo.c.o
msg_ctrl            0x8               ./Debug/msg_msg.c.o
u8SensorwriteID     0x1               ./Debug/sensor_sensor.c.o
OSD2Inf             0x14              ./Debug/lcd_osd.c.o
g_VideoIndexFIFO    0x1c              ./Debug/play_avi_player.c.o
lastTimeCount       0x4               ./Debug/csi_csi_timeinfo.c.o
t_play              0x8               ./Debug/task_task_play.c.o
setup_pkt           0x8               ./Debug/audio_adc_audio_adc.c.o
u32csi_IntFlag      0x4               ./Debug/csi_csi_isr.c.o
removeChain_inptr   0x1               libs\libfs.a(ff.o)
index_filename      0x1c              ./Debug/fat_api_fat_api.c.o
YUYVDestBuff        0x4               libs\libjpeg.a(jpeg_linebuffer.o)
TimeInfo_for_record
                    0x13              ./Debug/task_task_video.c.o
UacMuteControl      0x1               libs\libusb.a(usb_dev_audio.o)
g_IndexInfo         0x14              ./Debug/play_avi_player.c.o
AudioStreamingIsOn  0x1               libs\libusb.a(usb_dev_audio.o)
removeChain_pool    0x40              libs\libfs.a(ff.o)
g_cbw_tag           0x4               libs\libusb.a(usb_device_mass.o)
g_last_err          0x1               libs\libusb.a(usb_device_mass.o)
bStopVideo_Flag     0x1               ./Debug/fat_api_fat_api.c.o
Total_record_timer_current
                    0x8               ./Debug/task_task_video.c.o
Fil                 0x240             ./Debug/fat_api_fat_api.c.o
pkt_per_sec         0x1               ./Debug/audio_adc_audio_adc.c.o
indexFil            0x240             ./Debug/fat_api_fat_api.c.o
OSD3Inf             0x14              ./Debug/lcd_osd.c.o
g_packet_len        0x1               libs\libusb.a(usb_device_mass.o)
g_AVIFileInfo       0x54              ./Debug/play_avi_player.c.o
msg_pool            0xf               ./Debug/msg_msg.c.o
ep0txbuf            0x40              libs\libusb.a(usb_dev_audio.o)
menu_mgroup         0x44              ./Debug/menu_menu_display.c.o
EP0WaitForSetReqData
                    0x1               ./Debug/audio_adc_audio_adc.c.o
FontLib             0x8               ./Debug/font_font.c.o
g_bAdditionalSenseCode
                    0x1               libs\libusb.a(usb_device_mass.o)
g_VideoIndexBuf     0xc8              ./Debug/play_avi_player.c.o
u32jpegSize_H       0x4               libs\libjpeg.a(jpeg_dec.o)
jpdec_flag          0x1               libs\libjpeg.a(jpeg_dec.o)
TimeInfoCurrent     0x13              ./Debug/csi_csi_timeinfo.c.o
p_ifc               0x4               ./Debug/audio_adc_audio_adc.c.o
auido_sd_locat_fifo
                    0x10              libs\libjpeg.a(jpeg_enc.o)
u32DataOffset       0x4               libs\libfat.a(fat.o)
u8Addrbytnum        0x1               ./Debug/sensor_sensor.c.o
sys_ctl             0x24              ./Debug/menu_menu_setting.c.o
t_photo             0x8               ./Debug/task_task_photo.c.o
agcflg              0x1               ./Debug/audio_adc_audio_adc.c.o
task_ctl            0x8               ./Debug/task_task.c.o
fnlist              0xbb80            ./Debug/fat_api_fat_api.c.o
g_cur_lun           0x1               libs\libusb.a(usb_device_mass.o)
clmt                0x1000            ./Debug/fat_api_fat_api.c.o
jpeg_isrfp          0x4               ./Debug/audio_adc_audio_adc.c.o
play_file_total     0x4               ./Debug/task_task_play.c.o
usb_var             0x4               ./Debug/audio_adc_audio_adc.c.o
p_cfg               0x4               ./Debug/audio_adc_audio_adc.c.o
AudioDataIndex      0x1               libs\libusb.a(usb_dev_audio.o)
g_bAddiSenseCodeQualifier
                    0x1               libs\libusb.a(usb_device_mass.o)
bSameSizeFlag       0x1               ./Debug/csi_csi.c.o
usbstack            0xc               ./Debug/audio_adc_audio_adc.c.o
OSD_changeFlag      0x4               ./Debug/lcd_osd.c.o
u32Timer0_1msCnt    0x4               ./Debug/timer_timer_isr.c.o

Memory Configuration

Name             Origin             Length             Attributes
ram              0x20000000         0x00050000         xw
bssram           0x20050000         0x00018000         xw
*default*        0x00000000         0xffffffff

Linker script and memory map

LOAD ./Debug/audio_adc_audio_adc.c.o
LOAD ./Debug/audio_dac_audio_dac.c.o
LOAD ./Debug/common_common.c.o
LOAD ./Debug/csi_csi.c.o
LOAD ./Debug/csi_csi_isr.c.o
LOAD ./Debug/csi_csi_timeinfo.c.o
LOAD ./Debug/fat_api_fat_api.c.o
LOAD ./Debug/font_font.c.o
LOAD ./Debug/gpdma_gpdma.c.o
LOAD ./Debug/i2c_i2c.c.o
LOAD ./Debug/int_int.c.o
LOAD ./Debug/lcd_lcdc.c.o
LOAD ./Debug/lcd_osd.c.o
LOAD ./Debug/lcd_lcd_driver.c.o
LOAD ./Debug/lcd_lcd_interface.c.o
LOAD ./Debug/lcd_lcd_tdo24theb2.c.o
LOAD ./Debug/lcd_lcd_ili8961.c.o
LOAD ./Debug/lcd_lcd_nodisplay.c.o
LOAD ./Debug/lcd_lcd_3029.c.o
LOAD ./Debug/lcd_lcd_61505.c.o
LOAD ./Debug/lcd_lcd_hx8367.c.o
LOAD ./Debug/lcd_lcd_7781.c.o
LOAD ./Debug/lcd_lcd_ili6480.c.o
LOAD ./Debug/lcd_lcd_61505W.c.o
LOAD ./Debug/lcd_lcd_3029C.c.o
LOAD ./Debug/lcd_lcd_9303.c.o
LOAD ./Debug/lcd_lcd_9312.c.o
LOAD ./Debug/lcd_lcd_ili9225.c.o
LOAD ./Debug/main_main.c.o
LOAD ./Debug/menu_menu_display.c.o
LOAD ./Debug/menu_menu_struct.c.o
LOAD ./Debug/menu_menu_setting.c.o
LOAD ./Debug/msg_adkey.c.o
LOAD ./Debug/msg_msg.c.o
LOAD ./Debug/play_avi_player.c.o
LOAD ./Debug/play_gp_fifo.c.o
LOAD ./Debug/play_play_picture.c.o
LOAD ./Debug/rtc_rtc.c.o
LOAD ./Debug/sd_sd_ext.c.o
LOAD ./Debug/sensor_sensor.c.o
LOAD ./Debug/sensor_sensor_gc0308.c.o
LOAD ./Debug/sensor_sensor_nt99140.c.o
LOAD ./Debug/sensor_sensor_ov7670.c.o
LOAD ./Debug/sensor_sensor_ov9710.c.o
LOAD ./Debug/sensor_sensor_nt99141.c.o
LOAD ./Debug/sensor_sensor_bf3925.c.o
LOAD ./Debug/sensor_sensor_siv121DS.c.o
LOAD ./Debug/sensor_sensor_ov7725.c.o
LOAD ./Debug/sensor_sensor_nt99240.c.o
LOAD ./Debug/sensor_sensor_siv100B.c.o
LOAD ./Debug/startup_spi_boot_cfg.S.o
LOAD ./Debug/sys_sys.c.o
LOAD ./Debug/timer_timer.c.o
LOAD ./Debug/timer_timer_isr.c.o
LOAD ./Debug/uart_uart.c.o
LOAD ./Debug/spi_spi.c.o
LOAD ./Debug/task_task.c.o
LOAD ./Debug/task_task_video.c.o
LOAD ./Debug/task_task_photo.c.o
LOAD ./Debug/task_task_play.c.o
LOAD ./Debug/task_task_usb_device.c.o
LOAD ./Debug/task_task_holdMode.c.o
LOAD ./Debug/tvout_tvout.c.o
LOAD ./Debug/led_led.c.o
LOAD ./Debug/g_sensor_g_sensor.c.o
LOAD ./Debug/g_sensor_g_sensor_dmard07.c.o
LOAD ./Debug/g_sensor_g_sensor_gma301a.c.o
LOAD ./Debug/g_sensor_g_sensor_null.c.o
LOAD d:/MinGW-4.7.1/arm-elf/lib\libc.a
LOAD d:/MinGW-4.7.1/lib/gcc/arm-elf/4.6.0\libgcc.a
LOAD libs\libjpeg.a
LOAD libs\libfs.a
LOAD libs\libusb.a
LOAD libs\libstartup.a
LOAD libs\libfat.a
LOAD libs\libsd.a

.text           0x20000000    0x310a0
 *(.text.vector)
 .text.vector   0x20000000      0x110 libs\libstartup.a(startup.o)
                0x20000000                _start
                0x20000094                MMU_Disable
 *(.text.irq_entry)
 .text.irq_entry
                0x20000110      0x150 ./Debug/int_int.c.o
                0x20000110                IRQ_EINT_Handle
 *(.text.startup)
 .text.startup  0x20000260       0x28 ./Debug/main_main.c.o
                0x20000260                main
 *(.text)
 .text          0x20000288      0xa7c ./Debug/audio_adc_audio_adc.c.o
                0x20000288                audio_adc_isr
                0x200002c4                audio_adc_analog_init
                0x200002f8                audio_adc_init
                0x200004d0                close_adc
                0x20000554                audio_adc_Stop
                0x200005c8                audio_AGC_DMA_Isr
                0x20000730                set_usb_audio_usr_para
                0x20000814                adc_init
                0x20000a40                USB_start_adc
                0x20000a78                Ep3_audio_adc_init
                0x20000b84                Get_ep3_auido_adc
 .text          0x20000d04      0xde4 ./Debug/audio_dac_audio_dac.c.o
                0x20000dc8                wr_reg
                0x20000dec                rd_reg
                0x20000e14                dac_irq
                0x20000e8c                digital_volume_set
                0x20000f30                dac_analog_init
                0x20000f48                obuf_cfg
                0x20001028                audio_dac_init
                0x200012bc                audio_dac_Stop
                0x20001378                audio_amplifier_open
                0x2000139c                audio_amplifier_close
                0x200013c0                music_init
                0x20001624                music_play
                0x2000176c                key_voice_init
                0x2000198c                key_voice
                0x20001a28                key_voice_after_recording
 .text          0x20001ae8      0x6f8 ./Debug/common_common.c.o
                0x20001ae8                my_strlen
                0x20001b04                my_memset
                0x20001bc4                zeromem
                0x20001c80                my_memcpy
                0x20001d3c                my_mem_cmp
                0x20001d6c                bmemcmp
                0x20001dd4                datacmp
                0x20001dfc                _strcpy
                0x20001e14                _strncmp
                0x20001e90                Delay_nopCnt
                0x20001ea8                Delay_MS
                0x20001ec8                Delay_10US
                0x20001ef0                XCHDWORD
                0x20001f1c                XCHWORD
                0x20001f38                device_init
                0x20001f7c                device_get
                0x20001f98                device_status_stable
                0x20002010                device_insert
                0x20002084                device_remove
                0x200020f4                gp_fifo_ctr
                0x20002130                gp_fifo_read
                0x2000216c                gp_fifo_look
                0x20002178                gp_fifo_write
                0x200021b0                gp_fifo_num_ele_ava
 .text          0x200021e0     0x1038 ./Debug/csi_csi.c.o
                0x200021e0                csi_Init
                0x200022a8                csi_ParameterSet
                0x20002388                csi_DmaSet
                0x2000254c                csi_SetDataWidth
                0x200025f0                csi_SetInputSize
                0x20002620                csi_SetOutMode
                0x200026b8                csi_SetOutputSize
                0x2000285c                csi_Start
                0x20002cb0                csi_SetScaler
                0x20002d18                csi_DmaEnable
                0x20002d9c                csi_MD_Start
                0x20002e10                csi_MD_Enable
                0x20002e28                csi_MD_Disable
                0x20002e40                csi_CheckMD
                0x20002ea8                csi_Stop
                0x20002ee4                csi_Enable
                0x20002f2c                csi_InserTimeInfo
                0x20002ffc                csi_camera_init
                0x200031b8                csi_camera_on
                0x200031e8                csi_camera_off
 .text          0x20003218      0x3dc ./Debug/csi_csi_isr.c.o
                0x20003218                csi_Isr
 .text          0x200035f4      0x57c ./Debug/csi_csi_timeinfo.c.o
                0x200035f4                csi_TimeInfo_Init
                0x20003618                csi_SetTimePos
                0x20003644                csi_SetTimeInfo
                0x20003698                csi_SetTimeInfoSize
                0x200036b0                csi_SetTime
                0x20003984                csi_SetTimeInfoRam
 .text          0x20003b70     0x25f8 ./Debug/fat_api_fat_api.c.o
                0x20003b70                InitRecordFolder
                0x20003cec                fat_GetReserveSpace
                0x20003d70                Fat_WriteAviHead
                0x20003f98                CheckVideoStopCondition
                0x200041ec                PlayVideoFile
                0x20004228                PlayPictureFile
                0x20004244                f_scan_files
                0x20004404                RecordJPGFile
                0x20004a0c                RecordVideoFile
                0x200056bc                f_get_scan_file_name
                0x20005728                f_get_filetime
                0x20005740                f_get_filenum
                0x20005780                f_get_scan_min_num
                0x2000586c                f_get_scan_max_num
                0x20005958                f_get_scan_first_num
                0x20005aa8                f_get_scan_last_num
                0x20005bfc                f_exchangesort_file
                0x20005d48                f_check_file_num
                0x20005e1c                f_get_free_space
                0x20005e58                f_getFileClustSize
                0x20005e80                SyncAVIInfo
                0x20005fb0                UpdateAVIInfo
                0x20006104                f_fastseek_init
                0x20006120                f_check_rec_video_file_size
                0x20006160                delete_file
                0x20006164                lock_unlock_file
 .text          0x20006168       0x24 ./Debug/font_font.c.o
                0x20006168                FontInit
                0x2000616c                GetUnicodeIndex
                0x20006170                GetStrFontInfo
                0x20006174                UnicodeInfoUpdate
                0x20006178                UnicodeInfoUpdate_EX
                0x2000617c                DisplayUnicodeStr
                0x20006180                DotMatrixIconDisplay
                0x20006184                DisplayUnicodeStr_ToTempBuf
                0x20006188                DisplayUnicodeStr_EXT
 .text          0x2000618c      0x500 ./Debug/gpdma_gpdma.c.o
                0x2000618c                channel5_disable
                0x200061d4                channel5_ctl
                0x20006250                channel5_cfg
                0x200062a4                channel5_trans_start
                0x200062d4                channel5_llp_cfg
                0x200062f0                channel5_llp_enable
                0x20006338                gpdma_channel5_mem2mem
                0x20006378                gpdma_ch5_llp
                0x200063bc                dma_peri2mem
                0x20006470                dma_mem2peri
                0x20006524                llp_peri2mem
                0x200065ac                dma_peri2mem_Ext
                0x20006660                gpdma_Isr
 .text          0x2000668c     0x1a4c ./Debug/i2c_i2c.c.o
                0x2000668c                i2c_Init
                0x200066bc                i2c_SendStart
                0x20006724                i2c_SendStop
                0x20006788                u8i2c_ReceiveACK
                0x200067e8                i2c_SendByte
                0x20006a44                u8i2c_RecvByte
                0x20006cc0                u8i2c_Read
                0x20007850                i2c_Write
 .text          0x200080d8       0x3c ./Debug/int_int.c.o
                0x200080d8                FIQ_EINT_Handle
                0x200080dc                SetIntSrc
                0x200080f8                ClrIntSrc
 .text          0x20008114      0xb18 ./Debug/lcd_lcdc.c.o
                0x20008114                lcd_set_panel_colour
                0x20008144                set_osd1_address
                0x20008154                set_osd2_address
                0x20008164                set_osd3_address
                0x20008174                set_video_address
                0x20008184                lcd_rgb2yuv
                0x20008284                lcd_rgb2yuvChEnd
                0x200083fc                lcd_emi_video_set_window
                0x20008440                lcd_rgb_video_set_window
                0x2000849c                lcd_set_line
                0x200084bc                lcd_emi_video_normal
                0x20008570                lcd_emi_video_zoom
                0x20008654                lcd_emi_video_display_part
                0x20008700                lcd_rgb_video_normal
                0x200087cc                lcd_rgb_video_zoom
                0x200088a8                save_osd_palette
                0x200088cc                save_osd_index
                0x200088f0                lcd_emi_osd1_set_window
                0x20008954                lcd_emi_osd2_set_window
                0x200089b8                lcd_emi_osd3_set_window
                0x20008a1c                lcd_rgb_osd1_set_window
                0x20008a90                lcd_rgb_osd2_set_window
                0x20008b04                lcd_rgb_osd3_set_window
                0x20008b78                video
 .text          0x20008c2c      0xab4 ./Debug/lcd_osd.c.o
                0x20008c2c                OSDInfInit
                0x20008c8c                lcd_UpdateOsdLUT
                0x20008e60                lcd_FillFullOsdData
                0x20008e78                lcd_OsdInit
                0x20008ff4                OSDInit
                0x20009238                lcd_FillPartOsdData
                0x20009354                lcd_UpdatePartOsdData
                0x20009358                lcd_UpdatePartOsdData_SDRAM
                0x20009468                osd_OsdData_load
                0x200094a4                lcd_UpdateOsdIconData_FromSdram
                0x200094a8                lcd_UpdateOsdIconData_FromSdram_EX
                0x200094ac                lcd_UpdateOsdIconData_FromSdramToOsdBuf
                0x200095bc                lcd_Clean_TempOsdBuf
 .text          0x200096e0      0x730 ./Debug/lcd_lcd_driver.c.o
                0x200096e0                delay_us
                0x20009718                delay_ms
                0x20009748                lcd_spi_putchar
                0x20009768                lcd_spi_getchar
                0x20009794                lcd_emi_timing_init
                0x200098d8                lcd_spirgb_timing_init
                0x20009b54                lcd_rgb_timing_init
                0x20009d68                datactrl_mode_sel
                0x20009d98                spi_to_rgb
                0x20009dc4                reset_rgb_data_en
                0x20009de0                waittingLcdFrameEnd
 .text          0x20009e10      0xbb0 ./Debug/lcd_lcd_interface.c.o
                0x20009e10                lcd_emi_osd1_display
                0x20009f04                lcd_emi_osd2_display
                0x20009fec                lcd_emi_osd3_display
                0x2000a0d4                lcd_emi_video_display_normal
                0x2000a13c                lcd_emi_video_display_zoom
                0x2000a1e8                lcd_writeback
                0x2000a268                lcd_emi_video_display_wbdata
                0x2000a2f8                lcd_rgb_osd1_display
                0x2000a3ec                lcd_rgb_osd2_display
                0x2000a4d4                lcd_rgb_osd3_display
                0x2000a5bc                lcd_rgb_video_display_normal
                0x2000a624                lcd_rgb_video_display_zoom
                0x2000a6d0                lcd_rgb_video_display_zoomChEnd
                0x2000a77c                lcd_rgb_video_display_wbdata
                0x2000a80c                lcd_PostScale_Start
                0x2000a92c                lcd_PostScale_Stop
 .text          0x2000a9c0        0x0 ./Debug/lcd_lcd_tdo24theb2.c.o
 .text          0x2000a9c0        0x0 ./Debug/lcd_lcd_ili8961.c.o
 .text          0x2000a9c0      0x258 ./Debug/lcd_lcd_nodisplay.c.o
                0x2000a9c0                lcd_spi_sendcmd
                0x2000a9c4                delay
                0x2000a9f4                lcd_spi_init
                0x2000aa50                lcd_init
                0x2000ab74                lcd_get_w
                0x2000ab7c                lcd_get_h
                0x2000ab84                lcd_set_backlight
                0x2000ab88                lcd_Isr
                0x2000abd0                TFT_LCD_Timing_Initail
 .text          0x2000ac18        0x0 ./Debug/lcd_lcd_3029.c.o
 .text          0x2000ac18        0x0 ./Debug/lcd_lcd_61505.c.o
 .text          0x2000ac18        0x0 ./Debug/lcd_lcd_hx8367.c.o
 .text          0x2000ac18        0x0 ./Debug/lcd_lcd_7781.c.o
 .text          0x2000ac18        0x0 ./Debug/lcd_lcd_ili6480.c.o
 .text          0x2000ac18        0x0 ./Debug/lcd_lcd_61505W.c.o
 .text          0x2000ac18        0x0 ./Debug/lcd_lcd_3029C.c.o
 .text          0x2000ac18        0x0 ./Debug/lcd_lcd_9303.c.o
 .text          0x2000ac18        0x0 ./Debug/lcd_lcd_9312.c.o
 .text          0x2000ac18        0x0 ./Debug/lcd_lcd_ili9225.c.o
 .text          0x2000ac18        0x0 ./Debug/main_main.c.o
 .text          0x2000ac18     0x14bc ./Debug/menu_menu_display.c.o
                0x2000ac18                ClrOSDDisplayFlag
                0x2000ac38                SetOSDDisplayFlag
                0x2000ac58                GetItemNums
                0x2000acd4                MenuOsdSdramChange
                0x2000ad20                MenuOsdSdramRelease
                0x2000ad40                MenuItemDisplay
                0x2000ae70                MenuBackgroundUpdate
                0x2000aefc                MenuPageUpdate
                0x2000afa4                MenuItemHighlight
                0x2000aff8                MenuPageOSDHeaderUpdate
                0x2000b35c                LoadMenuMPageInfo
                0x2000b398                MenuPageOSDUpdate
                0x2000b4cc                MenuPagePrev
                0x2000b594                MenuUpdate
                0x2000b68c                MenuCommonEvent
                0x2000b72c                MenuItemUp
                0x2000b848                MenuItemDown
                0x2000b930                MenuAct
                0x2000b974                MenuHandle
                0x2000ba78                MenuOSDInit
                0x2000bb04                MenuInit
                0x2000bb78                SetCurMenuType
                0x2000bba8                MenuExit
                0x2000bc10                MenuDisplay
 .text          0x2000c0d4        0x0 ./Debug/menu_menu_struct.c.o
 .text          0x2000c0d4     0x2374 ./Debug/menu_menu_setting.c.o
                0x2000c2ac                user_setting_factory
                0x2000c448                spi_param_factory
                0x2000c4b8                spi_param_write
                0x2000c568                spi_param_write8
                0x2000c58c                set_fast_view_time
                0x2000c5b0                set_beep_sound
                0x2000c5b4                user_set_video_time_info
                0x2000c5fc                set_record_video_s
                0x2000c610                user_set_crc_record
                0x2000c660                set_Gsensor_senstivity_value
                0x2000c684                user_set_Gsensor_senstivity
                0x2000c6e8                user_set_jpeg_video_size
                0x2000c730                user_set_moving_detect
                0x2000c790                user_set_record_mute
                0x2000c7d8                user_set_night_light
                0x2000c88c                set_night_light
                0x2000c900                user_set_jpeg_picture_size
                0x2000c948                user_set_picture_time_info
                0x2000c990                fix_date
                0x2000ca94                byte2Dec10000
                0x2000d160                time_setting_display
                0x2000d704                date_adjust_setting
                0x2000d8c8                user_set_language
                0x2000d910                poweroff_1s_check
                0x2000d9c0                set_poweroff
                0x2000d9f0                user_set_poweroff
                0x2000da60                user_set_beep_sound
                0x2000daa8                reset_powerSaveChk
                0x2000dacc                user_set_backlight
                0x2000db34                set_video_rotate
                0x2000db94                user_show_video_rotate
                0x2000dbac                user_setting_load
                0x2000dd60                spi_param_init
                0x2000e044                user_set_video_rotate
                0x2000e090                user_set_fast_view
                0x2000e0f0                user_set_format
                0x2000e314                user_set_delete_current
                0x2000e344                user_set_delete_all
                0x2000e368                user_set_lock_current
                0x2000e380                user_set_unlock_current
                0x2000e398                user_set_lock_all
                0x2000e3ac                user_set_unlock_all
                0x2000e3c4                user_set_tv_mode
 .text          0x2000e448      0x624 ./Debug/msg_adkey.c.o
                0x2000e448                SarAdcinit
                0x2000e47c                SarAdcChangeCh
                0x2000e4b4                battery_check_vol
                0x2000e578                IOKeyInit
                0x2000e5a8                ADKeyInit
                0x2000e5ac                KeyInit
                0x2000e5dc                get_adValue
                0x2000e604                GetIOKeyTpye
                0x2000e678                KeyDeal
                0x2000e714                KeyProcess
                0x2000e900                ScanKey
 .text          0x2000ea6c       0xf4 ./Debug/msg_msg.c.o
                0x2000ea6c                msg_init
                0x2000ea90                flush_msg
                0x2000eaa8                put_msg
                0x2000eae4                get_msg
                0x2000eb38                peek_msg
 .text          0x2000eb60      0xbe0 ./Debug/play_avi_player.c.o
                0x2000eb60                avi_Parser
                0x2000ed58                avi_Player
 .text          0x2000f740      0x124 ./Debug/play_gp_fifo.c.o
                0x2000f740                gp_fifo_init
                0x2000f798                gp_fifo_push
                0x2000f7fc                gp_fifo_pop
 .text          0x2000f864      0x34c ./Debug/play_play_picture.c.o
                0x2000f864                play_Picture
 .text          0x2000fbb0     0x12b8 ./Debug/rtc_rtc.c.o
                0x2000fbb0                rtc_Byte
                0x2000fbd8                rtc_WriteCfg
                0x2000fc30                rtc_ReadCfg
                0x2000fc88                rtc_WriteRam
                0x2000fd28                rtc_ReadRam
                0x2000fdcc                rtc_WriteCnt
                0x20010108                rtc_Init
                0x200102f0                rtc_ReadCnt
                0x200103c0                isLeapYear
                0x2001041c                byte2Dec
                0x20010454                now
                0x200106ac                CalcTimeInfo
                0x200108f0                rtc_WriteTime
                0x20010958                rtc_set_wko_down
                0x20010974                rtc_set_wko_up
                0x20010990                rtc_check_updata_time_from_txt
 .text          0x20010e68      0x4d0 ./Debug/sd_sd_ext.c.o
                0x20010e68                bsd_Init
                0x2001104c                sd_Wait74Clk
                0x20011050                bsd_DetectIO
                0x200110c8                sd_CheckOffline
                0x20011238                sd_Detect
                0x20011250                sd_err_reinit
 .text          0x20011338      0x280 ./Debug/sensor_sensor.c.o
                0x20011338                sensor_ClockInit
                0x200113dc                Sensor_WriteRegister
                0x20011474                Sensor_ReadRegister
                0x20011584                sensor_I2C_port_release
 .text          0x200115b8      0x2c8 ./Debug/sensor_sensor_gc0308.c.o
                0x200115b8                sensor_Init
                0x20011780                u8sensor_ReadID
                0x200117c0                sensor_rotate
 .text          0x20011880        0x0 ./Debug/sensor_sensor_nt99140.c.o
 .text          0x20011880        0x0 ./Debug/sensor_sensor_ov7670.c.o
 .text          0x20011880        0x0 ./Debug/sensor_sensor_ov9710.c.o
 .text          0x20011880        0x0 ./Debug/sensor_sensor_nt99141.c.o
 .text          0x20011880        0x0 ./Debug/sensor_sensor_bf3925.c.o
 .text          0x20011880        0x0 ./Debug/sensor_sensor_siv121DS.c.o
 .text          0x20011880        0x0 ./Debug/sensor_sensor_ov7725.c.o
 .text          0x20011880        0x0 ./Debug/sensor_sensor_nt99240.c.o
 .text          0x20011880        0x0 ./Debug/sensor_sensor_siv100B.c.o
 .text          0x20011880        0x0 ./Debug/startup_spi_boot_cfg.S.o
 .text          0x20011880      0xbc4 ./Debug/sys_sys.c.o
                0x20011880                internal_ldo_Init
                0x20011908                sys_close_ldo_voltage
                0x20011938                int_Init
                0x20011950                usb20_detect
                0x20011a24                pll_Init
                0x20011ad0                sdram_Init
                0x20011ba4                sdram_ClearBss
                0x20011bc0                bss_clear
                0x20011bf0                umod_test
                0x20011c1c                sys_dcin_init
                0x20011c4c                sys_dcin_set_up
                0x20011c88                sys_dcin_set_down
                0x20011cc4                sys_dcin_check
                0x20011d54                sys_dcin_start_flag_init
                0x20011e1c                sys_dcin_get_start_flag
                0x20011e2c                sys_dcin_set_start_flag
                0x20011e3c                jpeg_enc_InitTab
                0x20011e94                sys_show_jpeg
                0x20012054                sys_play_music
                0x20012058                sys_wdt_reset
                0x20012084                sys_update_firmware
                0x200121c0                sys_Init
 .text          0x20012444      0x180 ./Debug/timer_timer.c.o
                0x20012444                timer_Init
                0x2001245c                timer_Timer0_Start
                0x200124a8                timer_Timer0_Stop
                0x200124c0                timer_Timer1_Start
                0x200124ec                timer_Timer1_Stop
                0x20012510                timer_Timer2_Start
                0x2001253c                timer_Timer2_Stop
                0x20012564                timer_Timer3_Start
                0x200125ac                timer_Timer3_Stop
 .text          0x200125c4      0x1a0 ./Debug/timer_timer_isr.c.o
                0x200125c4                timer0_isr
                0x200126b8                timer1_isr
                0x20012728                timer2_isr
                0x20012750                timer3_isr
 .text          0x20012764      0xb68 ./Debug/uart_uart.c.o
                0x20012764                uart_Init
                0x200127b0                uart_PutChar
                0x20012824                uart_PutChar_n
                0x20012980                uart_PutStr
                0x20012ac4                uart_Put_hex
                0x20012c10                uart_Put_udec
                0x20012ce4                uart_Put_dec
                0x20012e38                uart_Printf
                0x20013260                uart_PrintfBuf
 .text          0x200132cc      0xaa0 ./Debug/spi_spi.c.o
                0x200132cc                spi_Init
                0x20013358                spi_setCSStatus
                0x20013398                spi_SendByte
                0x200133c4                u8spi_ReceiveByte
                0x200133fc                spi_SFSendAddr
                0x2001347c                u32spi_SFReadID
                0x20013590                spi_SFReadData
                0x200136cc                spi_SFWriteEnable
                0x20013740                spi_SFWriteDisable
                0x200137b4                spi_SFWaitStatusOK
                0x20013888                spi_SFWriteData
                0x20013a0c                spi_SFEraseSector
                0x20013b58                spi_SFEraseBlock
                0x20013ca4                spi_SFEraseChip
 .text          0x20013d6c      0x90c ./Debug/task_task.c.o
                0x20013d6c                BatVolDisplay
                0x20013de4                LockModeDisplay
                0x20013e44                DisPlayLowPower
                0x20013ee8                ZoomNumDisplay
                0x20013f7c                DisPlaySDCard
                0x20014178                mode_change
                0x200141b0                night_light_ctrl
                0x200141f8                deal_msg
                0x20014498                init_task_data
                0x200144ac                run_task
                0x2001457c                task_exit
                0x200145c4                task_into_lock_record_video
                0x20014668                task_get_lock_mode_flag
 .text          0x20014678     0x117c ./Debug/task_task_video.c.o
                0x20014678                task_record_1s_check
                0x20014694                task_record_set_md_wait
                0x200146cc                task_record_get_push_key_stop_flag
                0x200146dc                task_record_set_push_key_stop_flag
                0x200146ec                task_video_MD_wait
                0x20014710                task_record_video_init
                0x20014884                task_record_start
                0x200149c8                task_record_deal_msg
                0x20014abc                task_record_dis_system_time
                0x20014b78                task_record_clean_system_time
                0x20014bac                task_record_dis_record_time
                0x20014e80                cal_record_time
                0x20014f50                clear_record_dis_time
                0x20014f6c                task_record_video_display
                0x2001545c                MotionDetectDisplay
                0x200154ac                task_record_common_even
                0x20015574                task_record_video_event
                0x2001568c                task_record_exit
                0x20015698                task_record_video
 .text          0x200157f4      0x878 ./Debug/task_task_photo.c.o
                0x200157f4                task_photo_init
                0x200158d8                task_photo_start
                0x200159c0                task_photo_dis_system_time
                0x20015a7c                task_photo_display
                0x20015b54                dis_pic_back_sensor
                0x20015b94                task_photo_common_even
                0x20015c04                task_photo_event
                0x20015cc4                task_photo_deal_msg
                0x20015e54                task_photo_exit
                0x20015e60                task_photo
 .text          0x2001606c      0x6fc ./Debug/task_task_play.c.o
                0x2001606c                task_play_init
                0x20016084                task_paly_get_file_num
                0x200160e4                task_play_pause_control
                0x2001616c                task_play_deal_msg
                0x20016390                task_play_Next
                0x200163b0                task_play_start
                0x200163bc                task_play_event
                0x200164a4                task_play_display
                0x200165a0                task_play_exit
                0x200166cc                task_play
 .text          0x20016768      0x1f4 ./Debug/task_task_usb_device.c.o
                0x20016768                task_usb_device_deal_msg
                0x20016778                task_usb_device
 .text          0x2001695c      0x324 ./Debug/task_task_holdMode.c.o
                0x2001695c                powerSaveCheck
                0x200169e4                holdModeEnter
                0x20016ad8                holdModeExit
                0x20016bac                holdModeHook
                0x20016bc8                checkWakeUp
                0x20016c18                task_holdMode
 .text          0x20016c80     0x1b0c ./Debug/tvout_tvout.c.o
                0x20016d54                tvout_lcd_en
                0x20016d6c                tvout_lcd_disen
                0x20016d84                tvout_display_set
                0x20016e90                tvout_get_cur_mode
                0x20016ea0                tvout_get_w
                0x20016eb0                tvout_get_h
                0x20016ec0                tv_disable
                0x20016ed8                tvout_set_cur_mode
                0x20018408                tvout_Set_Dis_Offset
                0x20018420                tvout_Change_dis_size
                0x2001867c                tvout_Change_display
 .text          0x2001878c       0xa0 ./Debug/led_led.c.o
                0x2001878c                led_Init
                0x200187e0                led_SetStatus
                0x200187fc                led_SetStatus_RED
                0x20018814                led_SetStatus_GREEN
 .text          0x2001882c        0x0 ./Debug/g_sensor_g_sensor.c.o
 .text          0x2001882c        0x0 ./Debug/g_sensor_g_sensor_dmard07.c.o
 .text          0x2001882c        0x0 ./Debug/g_sensor_g_sensor_gma301a.c.o
 .text          0x2001882c       0x14 ./Debug/g_sensor_g_sensor_null.c.o
                0x2001882c                Gsen_set_Threshold
                0x20018830                G_sensor_init
                0x20018834                Gsen_Int_Set
                0x20018838                Gsen_check_lock_flag
 .text          0x20018840       0xf0 d:/MinGW-4.7.1/arm-elf/lib\libc.a(lib_a-strcpy.o)
                0x20018840                strcpy
 .text          0x20018930       0x60 d:/MinGW-4.7.1/arm-elf/lib\libc.a(lib_a-strlen.o)
                0x20018930                strlen
 .text          0x20018990      0x118 d:/MinGW-4.7.1/lib/gcc/arm-elf/4.6.0\libgcc.a(_udivsi3.o)
                0x20018990                __aeabi_uidiv
                0x20018990                __udivsi3
                0x20018a88                __aeabi_uidivmod
 .text          0x20018aa8      0x148 d:/MinGW-4.7.1/lib/gcc/arm-elf/4.6.0\libgcc.a(_divsi3.o)
                0x20018aa8                __divsi3
                0x20018aa8                __aeabi_idiv
                0x20018bd0                __aeabi_idivmod
 .text          0x20018bf0       0xcc d:/MinGW-4.7.1/lib/gcc/arm-elf/4.6.0\libgcc.a(_umodsi3.o)
                0x20018bf0                __umodsi3
 .text          0x20018cbc        0x4 d:/MinGW-4.7.1/lib/gcc/arm-elf/4.6.0\libgcc.a(_dvmd_tls.o)
                0x20018cbc                __div0
 .text          0x20018cc0      0xa60 libs\libjpeg.a(jpeg_enc.o)
                0x20018cc0                jpeg_enc_Init
                0x20018d14                jpeg_enc_InitQualTab
                0x20018d40                jpeg_enc_Start
                0x20019078                jpeg_enc_Stop
                0x20019094                AddIndex
                0x200191d8                jpeg_enc_Isr
 .text          0x20019720       0x18 libs\libjpeg.a(jpeg_isr.o)
                0x20019720                jpeg_Isr
 .text          0x20019738      0xe9c libs\libjpeg.a(jpeg_dec.o)
                0x20019738                jpdec_Isr
                0x20019854                jpeg_header_decode
                0x2001a33c                mjpdec_Start
                0x2001a5ac                jpdec_Stop
 .text          0x2001a5d4      0x604 libs\libjpeg.a(jpeg_linebuffer.o)
                0x2001a5d4                jpeg_LineBuffer_Start
                0x2001a820                WriteHalfLineBuffer
                0x2001a968                WriteEightHalfLineBuffer
                0x2001aa44                WriteLineBuffer
                0x2001ab10                WriteEightLineBuffer
                0x2001ab88                lcd_WriteBack
 .text          0x2001abd8       0x24 libs\libfs.a(fat_format.o)
                0x2001abd8                format_filesystem
 .text          0x2001abfc     0x5ed0 libs\libfs.a(ff.o)
                0x2001d1bc                clust2sect
                0x2001d1e0                get_fat
                0x2001d200                put_fat
                0x2001d220                f_mount
                0x2001d318                f_open
                0x2001d5a4                f_read
                0x2001d9c0                f_write
                0x2001de60                f_sync
                0x2001e000                f_close
                0x2001e070                f_lseek
                0x2001e560                f_opendir
                0x2001e63c                f_closedir
                0x2001e698                f_readdir
                0x2001e760                f_stat
                0x2001e7dc                f_getfree
                0x2001e9b4                f_truncate
                0x2001eb70                f_unlink
                0x2001ede0                f_mkdir
                0x2001f154                f_chmod
                0x2001f1e8                f_utime
                0x2001f284                f_rename
                0x2001f678                removeChainInit
                0x2001f6a4                put_removeChain
                0x2001f6d8                get_removeChain
                0x2001f728                f_unlink_removeDir
                0x2001f9a8                f_unlink_removeChain
                0x2001fc88                f_merge
                0x2001ff98                f_bound_init
                0x2001ffb0                f_bound
                0x20020210                f_mkfs
 .text          0x20020acc      0x130 libs\libfs.a(diskio.o)
                0x20020acc                get_fattime
                0x20020b1c                disk_initialize
                0x20020b2c                disk_status
                0x20020b44                disk_read
                0x20020b74                disk_write
                0x20020ba4                disk_ioctl
 .text          0x20020bfc     0x2518 libs\libusb.a(usb_device_mass.o)
                0x20020bfc                get_packet_from_host
                0x20020ca4                send_packet_to_host
                0x20020d2c                cbw_check_sd_status
                0x20020da8                unknown
                0x20020e44                send_csw
                0x20020f88                cbw_inquiry
                0x20021058                cbw_read_capacity
                0x20021224                cbw_read_format_capacity
                0x20021400                cbw_mode_sense6
                0x20021644                cbw_connect_updata_tools_ack
                0x20021714                delay1
                0x2002173c                cbw_update
                0x200219a4                cbw_test_unit
                0x20021a70                cbw_request_sense
                0x20021bac                STALL_INEP
                0x20021bc8                STALL_OUTEP
                0x20021be8                cbw_read
                0x200221c4                cbw_write
                0x200227b4                cbw_select_mode_sense6
                0x20022808                prevent_allow
                0x200228d0                cbw_verify
                0x200228f0                rbc_process
 .text          0x20023114      0x4cc libs\libusb.a(usb_dev_audio.o)
                0x20023114                UacReceiveSetMuteControlCallback
                0x2002313c                UacReceiveSetVolControlCallback
                0x20023180                UacReceiveSetSamplingFreqCallback
                0x20023200                USB_EP3DataIn
                0x2002325c                uac_var_init
                0x200232b4                HandleUacFeatUnitReq
                0x20023488                UacHandleRequestToStreamingEndpoint
                0x2002357c                dealforep3isr
 .text          0x200235e0     0x11a8 libs\libusb.a(usb_device_enum.o)
                0x200235e0                delay_5ms
                0x20023604                usb_device_reset_int
                0x200236e0                usb_device_init
                0x20023734                ep0_clear_send_stall
                0x2002375c                Usb_Set_Stall
                0x20023788                usb_ep0_null_pkt_out
                0x200237a4                usb_get_status
                0x20023844                usb_get_device_desc
                0x200238a4                usb_get_config_desc
                0x2002399c                usb_get_string_desc
                0x20023a7c                usb_get_dev_qualifier_dec
                0x20023ac0                usb_get_descriptor
                0x20023bbc                usb_clear_epx
                0x20023be4                usb_clear_feature
                0x20023c24                usb_set_config
                0x20023c40                usb_get_config
                0x20023c84                usb_dev_set_addr
                0x20023cc8                get_max_lun
                0x20023cf8                USB_Set_Interface
                0x20023e34                usb_class_pro
                0x200240a8                ep0_tx_mode
                0x20024264                ep0_rx_mode
                0x20024360                usb_epx_tx_dat
                0x20024410                ep0_idle_mode
                0x200246ac                usb_ep0_isr
 .text          0x20024788      0x234 libs\libusb.a(usb.o)
                0x20024788                usb_dma_dpk
                0x20024838                usb_irq_isr
                0x200248b4                usb_reset_int
                0x20024910                usb_clk_set
 .text          0x200249bc      0xf48 libs\libusb.a(usb_device_video.o)
                0x200249bc                UvcReceiveStillProbeSetDataCallback
                0x200249c4                UvcReceiveStillCommitSetDataCallback
                0x200249cc                UvcReceivePowerLineFreSetDataCallback
                0x200249d4                UvcReceiveBacklightComSetDataCallback
                0x200249dc                UvcReceiveContrastSetDataCallback
                0x200249e4                UvcReceiveSaturationSetDataCallback
                0x200249ec                UvcReceiveSharpnessSetDataCallback
                0x200249f4                UvcReceiveGammaSetDataCallback
                0x200249fc                UvcReceiveBrightnessSetDataCallback
                0x20024a04                UvcReceiveHueSetDataCallback
                0x20024a0c                UvcReceiveStillTriggerControlCallback
                0x20024a30                UvcReceiveVideoProbeSetDataCallback
                0x20024a8c                UvcReceiveVideoCommitSetDataCallback
                0x20024b48                uvc_video_probe_control
                0x20024bd4                uvc_video_commit_control
                0x20024c1c                uvc_still_probe_control
                0x20024ca4                uvc_still_commit_control
                0x20024cec                uvc_pu_power_line_frequency_control
                0x20024db0                uvc_pu_backlight_compensation_control
                0x20024eb0                uvc_pu_contrast_control
                0x20024fd4                uvc_pu_saturation_control
                0x200250f8                uvc_pu_sharpness_control
                0x2002521c                uvc_pu_gamma_control
                0x20025340                uvc_pu_brightness_control
                0x20025464                uvc_pu_hue_control
                0x20025588                uvc_still_trigger_control
                0x200255e4                uvc_send_video_packet
                0x20025704                UsbEP2InPacketReadyCleared
                0x20025738                CsiHandleLastPacket
                0x2002577c                CsiBuffer0FullIntrHandler
                0x200257dc                CsiBuffer1FullIntrHandler
                0x20025840                CsiEndOfFrameIntrHandler
                0x200258d8                uvc_var_init
 *fill*         0x20025904        0xc 00
 .text          0x20025910      0x160 libs\libusb.a(update.o)
                0x20025910                .Lback2mrom
 .text          0x20025a70      0x134 libs\libstartup.a(cpu.o)
                0x20025a70                creat_page_table
                0x20025ae4                creat_page_table_hold
                0x20025b30                DrainWriteBuffer
                0x20025b3c                CleanDCacheLine
                0x20025b48                CleanInvalidDCacheLine
                0x20025b54                CleanDCacheRegion
                0x20025b7c                CleanInvalidDCacheRegion
 .text          0x20025ba4      0x1d8 libs\libstartup.a(lowPower.o)
                0x20025ba4                cpu_hold_func
                0x20025ce4                cpu_hold_mode
 .text          0x20025d7c        0x0 libs\libstartup.a(startup.o)
 .text          0x20025d7c        0x0 libs\libstartup.a(BootSec.o)
 .text          0x20025d7c      0x83c libs\libfat.a(fat.o)
                0x20025d7c                WriteIndexData
                0x20025e34                Write4KJpegData
                0x20025f14                WriteVideoInfo
 .text          0x200265b8      0xdd0 libs\libfat.a(fat_fileorder.o)
                0x200265b8                f_get_RecFileName
                0x200266ac                f_FileOrder_AddFile
                0x200267c8                f_get_firstfile_num
                0x200269e8                f_get_lastfile_num
                0x20026b84                f_get_totalfile_num
                0x20026c38                f_get_file_name
                0x20026c4c                f_update_FileOrder
                0x20026d34                f_lock_unlock_FileName
                0x20026ef0                f_del_file_name
                0x20027094                sys_update_FileOrder
                0x2002733c                f_Write_FlieOrder
 .text          0x20027388     0x2434 libs\libsd.a(sd.o)
                0x20027388                bsd_Reset
                0x2002743c                bsd_GetVer
                0x200277f4                dwsd_GetRspVar
                0x20027804                bsd_GetAllCID
                0x200278b8                bsd_GetCID
                0x20027974                bsd_GetRCA
                0x20027a38                bsd_DealWithRCA
                0x20027ba0                bsd_GetCSD
                0x20027c5c                dwsd_GetSDCap
                0x20027d18                bsd_SelectCard
                0x20027e30                bsd_SetBlockLen
                0x20027ee4                bsd_SetBusWidth
                0x20028034                bsd_SetFunc
                0x20028240                bsd_IsTranState
                0x20028314                bsd_SendCMD
                0x200283e0                bsd_Send_CMD
                0x200288e8                bsd_Send_ACMD
                0x20028a78                bsd_SetMMCRCA
                0x20028b3c                bsd_WaitDAT0High
                0x20028bb4                bsd_StopTran
                0x20028d14                bsd_Close
                0x20028eb8                sd_StartDataKick
                0x20028f5c                bsd_WaitDataPending
                0x20028fb0                bsd_UpdateSDData
                0x20029414                bsd_write
                0x200294b0                bsd_read
                0x2002954c                sd_WaitSdStopTran
                0x200296b4                InitSDCard
 *(.rodata)
 .rodata        0x200297bc      0x8c4 ./Debug/audio_dac_audio_dac.c.o
                0x200297bc                llp0
                0x200297d8                key_voice_llp0
                0x200297f4                llp1
                0x20029810                key_voice_source
 .rodata        0x2002a080       0x18 ./Debug/fat_api_fat_api.c.o
                0x2002a080                work_dir_dc
                0x2002a08c                work_dir_dv
 .rodata        0x2002a098       0x44 ./Debug/lcd_lcd_nodisplay.c.o
                0x2002a098                spi_nodisplay
 .rodata        0x2002a0dc     0x3b44 ./Debug/menu_menu_struct.c.o
                0x2002a0dc                menu_level_clear_region
                0x2002a100                menu_highlight
                0x2002a124                menu_level_region
                0x2002a148                menu2page
                0x2002a170                menu_list
                0x2002a198                act_list
                0x2002a268                browse_menu
                0x2002a274                browse_menu_item
                0x2002a298                browse_protect_menu
                0x2002a2a4                browse_protect_item
                0x2002a2e0                browse_unlock_all_menu
                0x2002a2ec                browse_unlock_all_item
                0x2002a310                browse_lock_all_menu
                0x2002a31c                browse_lock_all_item
                0x2002a340                browse_unlock_this_menu
                0x2002a34c                browse_unlock_this_item
                0x2002a370                browse_lock_this_menu
                0x2002a37c                browse_lock_this_item
                0x2002a3a0                browse_delete_menu
                0x2002a3ac                browse_delete_item
                0x2002a3d0                photo_delete_all_menu
                0x2002a3dc                browse_delete_all_item
                0x2002a400                browse_delete_this_menu
                0x2002a40c                browse_delete_this_item
                0x2002a430                photo_menu
                0x2002a43c                photo_setting_item
                0x2002a46c                photo_date_menu
                0x2002a478                PHOTO_DATE_SETTING_ITEM
                0x2002a49c                photo_slide_menu
                0x2002a4a8                PHOTO_VIEW_ITEM
                0x2002a4d8                photo_mp_menu
                0x2002a4e4                photo_mp_item
                0x2002a520                video_menu
                0x2002a52c                VIDEO_SETTING_ITEM
                0x2002a574                video_g_sensor_menu
                0x2002a580                video_g_sensor_item
                0x2002a5bc                video_date_menu
                0x2002a5c8                video_date_tag_item
                0x2002a5ec                video_vioce_menu
                0x2002a5f8                VIDEO_VOICE_SETTING_ITEM
                0x2002a61c                motion_detection_menu
                0x2002a628                MOTION_DECTECTION_ITEM
                0x2002a64c                video_loop_menu
                0x2002a658                VIDEO_LOOP_SETTING_ITEM
                0x2002a694                video_resolution_menu
                0x2002a6a0                VIDEO_RESOLUTION_SETTING_ITEM
                0x2002a6d0                attribute_menu
                0x2002a6dc                ATTRIBUTE_SETTING_ITEM
                0x2002a760                version_menu
                0x2002a76c                version_item
                0x2002a784                video_night_light_menu
                0x2002a790                video_night_light_item
                0x2002a7b4                default_menu
                0x2002a7c0                default_item
                0x2002a7e4                formate_menu
                0x2002a7f0                formate_item
                0x2002a814                beep_sound_menu
                0x2002a820                beep_sound_item
                0x2002a844                tv_menu
                0x2002a850                tv_item
                0x2002a880                video_rotate_menu
                0x2002a88c                video_rotate_item
                0x2002a8b0                screen_save_menu
                0x2002a8bc                screen_save_item
                0x2002a8f8                language_menu
                0x2002a904                language_item
                0x2002a994                power_off_menu
                0x2002a9a0                power_off_item
                0x2002a9d0                unlock_all_t
                0x2002a9fc                lock_all_t
                0x2002aa28                unlock_this_t
                0x2002aa54                lock_this_t
                0x2002aa80                delete_all_t
                0x2002aaac                delete_this_t
                0x2002aad8                browse_string
                0x2002ab04                photo_string
                0x2002ab30                video_string
                0x2002ab5c                attribute_string
                0x2002ab88                browse_setting_string1
                0x2002abb4                browse_setting_string0
                0x2002abe0                photo_protecting_string3
                0x2002ac0c                photo_protecting_string2
                0x2002ac38                photo_protecting_string1
                0x2002ac64                photo_protecting_string0
                0x2002ac90                ok_string
                0x2002acbc                cancel_string
                0x2002ace8                photo_deleting_string1
                0x2002ad14                photo_deleting_string0
                0x2002ad40                photo_setting_string2
                0x2002ad6c                photo_setting_string1
                0x2002ad98                photo_setting_string0
                0x2002adc4                photo_date_string1
                0x2002adf0                photo_date_string0
                0x2002ae1c                photo_view_string2
                0x2002ae48                photo_view_string1
                0x2002ae74                photo_view_string0
                0x2002aea0                rotate_string1
                0x2002aecc                rotate_string0
                0x2002aef8                photo_resolution_string3
                0x2002af24                photo_resolution_string2
                0x2002af50                photo_resolution_string1
                0x2002af7c                photo_resolution_string0
                0x2002afa8                video_setting_string6
                0x2002afd4                video_setting_string4
                0x2002b000                video_setting_string3
                0x2002b02c                video_setting_string2
                0x2002b058                video_setting_string1
                0x2002b084                video_setting_string0
                0x2002b0b0                video_gsensor_string3
                0x2002b0dc                video_gsensor_string2
                0x2002b108                video_gsensor_string1
                0x2002b134                video_gsensor_string0
                0x2002b160                video_night_string1
                0x2002b18c                video_night_string0
                0x2002b1b8                video_date_string1
                0x2002b1e4                video_date_string0
                0x2002b210                video_voice_string1
                0x2002b23c                video_voice_string0
                0x2002b268                video_detecting_string1
                0x2002b294                video_detecting_string0
                0x2002b2c0                on_string
                0x2002b2ec                off_string
                0x2002b318                video_loop_string3
                0x2002b344                video_loop_string2
                0x2002b370                video_loop_string1
                0x2002b39c                video_loop_string0
                0x2002b3c8                video_resolution_string3
                0x2002b3f4                video_resolution_string2
                0x2002b420                video_resolution_string1
                0x2002b44c                video_resolution_string0
                0x2002b478                attribute_tv_mode_string
                0x2002b4a4                attribute_beep_sound_string
                0x2002b4d0                attribute_page_string9
                0x2002b4fc                attribute_page_string8
                0x2002b528                attribute_page_string7
                0x2002b554                attribute_page_string6
                0x2002b580                attribute_page_string5
                0x2002b5ac                attribute_page_string4
                0x2002b5d8                attribute_page_string3
                0x2002b604                attribute_page_string2
                0x2002b630                attribute_page_string1
                0x2002b65c                attribute_page_string0
                0x2002b688                tv_string2
                0x2002b6b4                tv_string1
                0x2002b6e0                tv_string0
                0x2002b70c                version_string0
                0x2002b738                default_string1
                0x2002b764                default_string0
                0x2002b790                formate_string1
                0x2002b7bc                formate_string0
                0x2002b7e8                sleep_time_string3
                0x2002b814                sleep_time_string2
                0x2002b840                sleep_time_string1
                0x2002b86c                sleep_time_string0
                0x2002b898                light_source_string1
                0x2002b8c4                light_source_string0
                0x2002b8f0                power_off_string2
                0x2002b91c                power_off_string1
                0x2002b948                power_off_string0
                0x2002b974                language10
                0x2002b9a0                language9
                0x2002b9cc                language8
                0x2002b9f8                language7
                0x2002ba24                language6
                0x2002ba50                language5
                0x2002ba7c                language4
                0x2002baa8                language3
                0x2002bad4                language2
                0x2002bb00                language1
                0x2002bb2c                language0
                0x2002bb58                beep_sound_po
                0x2002bb6c                beep_sound_th
                0x2002bb7c                beep_sound_he
                0x2002bb94                beep_sound_tu
                0x2002bba0                beep_sound_spa
                0x2002bbb4                beep_sound_ja
                0x2002bbc4                beep_sound_ko
                0x2002bbd0                beep_sound_ru
                0x2002bbe4                beep_sound_en
                0x2002bbf0                beep_sound_cnt
                0x2002bbfc                beep_sound_cns
                0x2002bc08                wait_po
                0x2002bc1c                wait_th
                0x2002bc30                wait_he
                0x2002bc48                wait_tu
                0x2002bc58                wait_spa
                0x2002bc68                wait_ja
                0x2002bc88                wait_ko
                0x2002bca0                wait_ru
                0x2002bcd0                wait_en
                0x2002bce4                wait_cnt
                0x2002bcf4                wait_cns
                0x2002bd04                play_po
                0x2002bd10                play_th
                0x2002bd2c                play_he
                0x2002bd44                play_tu
                0x2002bd50                play_spa
                0x2002bd5c                play_ja
                0x2002bd6c                play_ko
                0x2002bd7c                play_ru
                0x2002bd9c                play_en
                0x2002bda8                play_cnt
                0x2002bdb8                play_cns
                0x2002bdc8                photo_po
                0x2002bdd4                photo_th
                0x2002bdec                photo_he
                0x2002be08                photo_tu
                0x2002be14                photo_spa
                0x2002be20                photo_ja
                0x2002be28                photo_ko
                0x2002be34                photo_ru
                0x2002be54                photo_en
                0x2002be5c                photo_cnt
                0x2002be6c                photo_cns
                0x2002be7c                video_po
                0x2002be84                video_th
                0x2002beac                video_he
                0x2002beb8                video_tu
                0x2002bec0                video_spa
                0x2002bec8                video_ja
                0x2002bed4                video_ko
                0x2002bee0                video_ru
                0x2002beec                video_en
                0x2002bef4                video_cnt
                0x2002bf04                video_cns
                0x2002bf14                setting_po
                0x2002bf20                setting_th
                0x2002bf38                setting_he
                0x2002bf48                setting_tu
                0x2002bf50                setting_spa
                0x2002bf58                setting_ja
                0x2002bf60                setting_ko
                0x2002bf68                setting_ru
                0x2002bf7c                setting_en
                0x2002bf84                setting_cnt
                0x2002bf8c                setting_cns
                0x2002bf94                lock_po
                0x2002bfa0                lock_th
                0x2002bfb0                lock_he
                0x2002bfb8                lock_tu
                0x2002bfc4                lock_spa
                0x2002bfd0                lock_ja
                0x2002bfdc                lock_ko
                0x2002bfe4                lock_ru
                0x2002bffc                lock_en
                0x2002c004                lock_cnt
                0x2002c00c                lock_cns
                0x2002c014                delete_po
                0x2002c020                delete_th
                0x2002c028                delete_he
                0x2002c030                delete_tu
                0x2002c038                delete_spa
                0x2002c040                delete_ja
                0x2002c050                delete_ko
                0x2002c058                delete_ru
                0x2002c068                delete_en
                0x2002c070                delete_cnt
                0x2002c078                delete_cns
                0x2002c080                unlock_all_po
                0x2002c098                unlock_all_th
                0x2002c0c8                unlock_all_he
                0x2002c0e4                unlock_all_tu
                0x2002c0f8                unlock_all_spa
                0x2002c10c                unlock_all_ja
                0x2002c130                unlock_all_ko
                0x2002c144                unlock_all_ru
                0x2002c168                unlock_all_en
                0x2002c174                unlock_all_cnt
                0x2002c184                unlock_all_cns
                0x2002c194                lock_all_po
                0x2002c1a8                lock_all_th
                0x2002c1cc                lock_all_he
                0x2002c1dc                lock_all_tu
                0x2002c1ec                lock_all_spa
                0x2002c1fc                lock_all_ja
                0x2002c218                lock_all_ko
                0x2002c228                lock_all_ru
                0x2002c248                lock_all_en
                0x2002c254                lock_all_cnt
                0x2002c264                lock_all_cns
                0x2002c274                unlock_this_po
                0x2002c284                unlock_this_th
                0x2002c2a0                unlock_this_he
                0x2002c2b4                unlock_this_tu
                0x2002c2c0                unlock_this_spa
                0x2002c2d8                unlock_this_ja
                0x2002c2fc                unlock_this_ko
                0x2002c310                unlock_this_ru
                0x2002c340                unlock_this_en
                0x2002c34c                unlock_this_cnt
                0x2002c35c                unlock_this_cns
                0x2002c36c                lock_this_po
                0x2002c37c                lock_this_th
                0x2002c3a4                lock_this_he
                0x2002c3bc                lock_this_tu
                0x2002c3c4                lock_this_spa
                0x2002c3d8                lock_this_ja
                0x2002c3f4                lock_this_ko
                0x2002c408                lock_this_ru
                0x2002c430                lock_this_en
                0x2002c43c                lock_this_cnt
                0x2002c44c                lock_this_cns
                0x2002c45c                delete_all_po
                0x2002c46c                delete_all_th
                0x2002c488                delete_all_he
                0x2002c498                delete_all_tu
                0x2002c4a8                delete_all_spa
                0x2002c4b4                delete_all_ja
                0x2002c4d8                delete_all_ko
                0x2002c4e8                delete_all_ru
                0x2002c500                delete_all_en
                0x2002c50c                delete_all_cnt
                0x2002c51c                delete_all_cns
                0x2002c52c                delete_this_po
                0x2002c538                delete_this_th
                0x2002c558                delete_this_he
                0x2002c570                delete_this_tu
                0x2002c578                delete_this_spa
                0x2002c58c                delete_this_ja
                0x2002c5b0                delete_this_ko
                0x2002c5c4                delete_this_ru
                0x2002c5e4                delete_this_en
                0x2002c5f0                delete_this_cnt
                0x2002c600                delete_this_cns
                0x2002c610                fast_view_po
                0x2002c61c                fast_view_th
                0x2002c638                fast_view_he
                0x2002c650                fast_view_tu
                0x2002c664                fast_view_spa
                0x2002c67c                fast_view_ja
                0x2002c690                fast_view_ko
                0x2002c6a0                fast_view_ru
                0x2002c6c4                fast_view_en
                0x2002c6d0                fast_view_cnt
                0x2002c6e0                fast_view_cns
                0x2002c6f0                five_sec_po
                0x2002c6fc                five_sec_th
                0x2002c710                five_sec_he
                0x2002c720                five_sec_tu
                0x2002c72c                five_sec_spa
                0x2002c734                five_sec_ja
                0x2002c73c                five_sec_ko
                0x2002c744                five_sec_ru
                0x2002c74c                five_sec_en
                0x2002c750                five_sec_cnt
                0x2002c758                five_sec_cns
                0x2002c760                two_sec_po
                0x2002c76c                two_sec_th
                0x2002c780                two_sec_he
                0x2002c790                two_sec_tu
                0x2002c79c                two_sec_spa
                0x2002c7a4                two_sec_ja
                0x2002c7ac                two_sec_ko
                0x2002c7b4                two_sec_ru
                0x2002c7bc                two_sec_en
                0x2002c7c0                two_sec_cnt
                0x2002c7c8                two_sec_cns
                0x2002c7d0                high_po
                0x2002c7d8                high_th
                0x2002c7e4                high_he
                0x2002c7f0                high_tu
                0x2002c7f8                high_spa
                0x2002c800                high_ja
                0x2002c808                high_ko
                0x2002c80c                high_ru
                0x2002c81c                high_en
                0x2002c824                high_cnt
                0x2002c828                high_cns
                0x2002c82c                mid_po
                0x2002c830                mid_th
                0x2002c838                mid_he
                0x2002c83c                mid_tu
                0x2002c844                mid_spa
                0x2002c84c                mid_ja
                0x2002c858                mid_ko
                0x2002c860                mid_ru
                0x2002c874                mid_en
                0x2002c878                mid_cnt
                0x2002c87c                mid_cns
                0x2002c880                low_po
                0x2002c888                low_th
                0x2002c894                low_he
                0x2002c8a0                low_tu
                0x2002c8ac                low_spa
                0x2002c8b4                low_ja
                0x2002c8bc                low_ko
                0x2002c8c4                low_ru
                0x2002c8d4                low_en
                0x2002c8d8                low_cnt
                0x2002c8dc                low_cns
                0x2002c8e0                gsensor_sens_po
                0x2002c8f0                gsensor_sens_th
                0x2002c930                gsensor_sens_he
                0x2002c948                gsensor_sens_tu
                0x2002c960                gsensor_sens_spa
                0x2002c980                gsensor_sens_ja
                0x2002c990                gsensor_sens_ko
                0x2002c9a0                gsensor_sens_ru
                0x2002c9d0                gsensor_sens_en
                0x2002c9dc                gsensor_sens_cnt
                0x2002c9ec                gsensor_sens_cns
                0x2002c9fc                night_visoin_po
                0x2002ca14                night_visoin_th
                0x2002ca2c                night_visoin_he
                0x2002ca40                night_visoin_tu
                0x2002ca50                night_visoin_spa
                0x2002ca60                night_visoin_ja
                0x2002ca6c                night_visoin_ko
                0x2002ca80                night_visoin_ru
                0x2002ca9c                night_visoin_en
                0x2002caa8                night_visoin_cnt
                0x2002cab4                night_visoin_cns
                0x2002cac0                date_tag_po
                0x2002cad0                date_tag_th
                0x2002caf8                date_tag_he
                0x2002cb0c                date_tag_tu
                0x2002cb1c                date_tag_spa
                0x2002cb2c                date_tag_ja
                0x2002cb3c                date_tag_ko
                0x2002cb4c                date_tag_ru
                0x2002cb6c                date_tag_en
                0x2002cb78                date_tag_cnt
                0x2002cb88                date_tag_cns
                0x2002cb98                audio_recording_po
                0x2002cba4                audio_recording_th
                0x2002cbc8                audio_recording_he
                0x2002cbd4                audio_recording_tu
                0x2002cbdc                audio_recording_spa
                0x2002cbf0                audio_recording_ja
                0x2002cbf8                audio_recording_ko
                0x2002cc00                audio_recording_ru
                0x2002cc10                audio_recording_en
                0x2002cc18                audio_recording_cnt
                0x2002cc28                audio_recording_cns
                0x2002cc38                motion_detecting_po
                0x2002cc48                motion_detecting_th
                0x2002cc70                motion_detecting_he
                0x2002cc88                motion_detecting_tu
                0x2002cc9c                motion_detecting_spa
                0x2002ccb0                motion_detecting_ja
                0x2002ccc0                motion_detecting_ko
                0x2002ccd0                motion_detecting_ru
                0x2002ccf8                motion_detecting_en
                0x2002cd0c                motion_detecting_cnt
                0x2002cd1c                motion_detecting_cns
                0x2002cd2c                loop_video_po
                0x2002cd44                loop_video_th
                0x2002cd5c                loop_video_he
                0x2002cd78                loop_video_tu
                0x2002cd8c                loop_video_spa
                0x2002cda8                loop_video_ja
                0x2002cdb8                loop_video_ko
                0x2002cdcc                loop_video_ru
                0x2002cde4                loop_video_en
                0x2002cdf4                loop_video_cnt
                0x2002ce04                loop_video_cns
                0x2002ce14                resolution_po
                0x2002ce20                resolution_th
                0x2002ce34                resolution_he
                0x2002ce48                resolution_tu
                0x2002ce54                resolution_spa
                0x2002ce60                resolution_ja
                0x2002ce6c                resolution_ko
                0x2002ce78                resolution_ru
                0x2002cea4                resolution_en
                0x2002ceb0                resolution_cnt
                0x2002cebc                resolution_cns
                0x2002cec8                r4032X3024
                0x2002ced4                r2560X1440
                0x2002cee0                r1920X1080
                0x2002ceec                r1280X720
                0x2002cef8                qvga320X240
                0x2002cf08                vga640X480
                0x2002cf14                r720X480
                0x2002cf1c                r1280X1024
                0x2002cf2c                pal_po
                0x2002cf30                pal_th
                0x2002cf34                pal_he
                0x2002cf38                pal_tu
                0x2002cf3c                pal_spa
                0x2002cf40                pal_ja
                0x2002cf44                pal_ko
                0x2002cf48                pal_ru
                0x2002cf4c                pal_en
                0x2002cf50                pal_cnt
                0x2002cf54                pal_cns
                0x2002cf58                ntsc_po
                0x2002cf60                ntsc_th
                0x2002cf68                ntsc_he
                0x2002cf70                ntsc_tu
                0x2002cf78                ntsc_spa
                0x2002cf80                ntsc_ja
                0x2002cf88                ntsc_ko
                0x2002cf90                ntsc_ru
                0x2002cf98                ntsc_en
                0x2002cfa0                ntsc_cnt
                0x2002cfa8                ntsc_cns
                0x2002cfb0                tv_mode_po
                0x2002cfb4                tv_mode_th
                0x2002cfb8                tv_mode_he
                0x2002cfbc                tv_mode_tu
                0x2002cfc0                tv_mode_spa
                0x2002cfc4                tv_mode_ja
                0x2002cfc8                tv_mode_ko
                0x2002cfcc                tv_mode_ru
                0x2002cfd0                tv_mode_en
                0x2002cfd4                tv_mode_cnt
                0x2002cfd8                tv_mode_cns
                0x2002cfdc                version
                0x2002cfe4                version_po
                0x2002cfec                version_th
                0x2002cffc                version_he
                0x2002d008                version_tu
                0x2002d014                version_spa
                0x2002d01c                version_ja
                0x2002d02c                version_ko
                0x2002d034                version_ru
                0x2002d044                version_en
                0x2002d04c                version_cnt
                0x2002d05c                version_cns
                0x2002d06c                formating_po
                0x2002d074                formating_th
                0x2002d088                formating_he
                0x2002d094                formating_tu
                0x2002d09c                formating_spa
                0x2002d0a8                formating_ja
                0x2002d0bc                formating_ko
                0x2002d0c4                formating_ru
                0x2002d0e4                formating_en
                0x2002d0ec                formating_cnt
                0x2002d0f8                formating_cns
                0x2002d104                defaulting_po
                0x2002d11c                defaulting_th
                0x2002d134                defaulting_he
                0x2002d148                defaulting_tu
                0x2002d154                defaulting_spa
                0x2002d174                defaulting_ja
                0x2002d190                defaulting_ko
                0x2002d1a4                defaulting_ru
                0x2002d1d0                defaulting_en
                0x2002d1e0                defaulting_cnt
                0x2002d1f0                defaulting_cns
                0x2002d200                Picture_rotating_po
                0x2002d214                Picture_rotating_th
                0x2002d22c                Picture_rotating_he
                0x2002d244                Picture_rotating_tu
                0x2002d258                Picture_rotating_spa
                0x2002d264                Picture_rotating_ja
                0x2002d274                Picture_rotating_ko
                0x2002d28c                Picture_rotating_ru
                0x2002d2b4                Picture_rotating_en
                0x2002d2c4                Picture_rotating_cnt
                0x2002d2d4                Picture_rotating_cns
                0x2002d2e4                screen_protecting_po
                0x2002d2f8                screen_protecting_th
                0x2002d320                screen_protecting_he
                0x2002d334                screen_protecting_tu
                0x2002d348                screen_protecting_spa
                0x2002d35c                screen_protecting_ja
                0x2002d374                screen_protecting_ko
                0x2002d388                screen_protecting_ru
                0x2002d3a4                screen_protecting_en
                0x2002d3b4                screen_protecting_cnt
                0x2002d3c4                screen_protecting_cns
                0x2002d3d4                light_freq_po
                0x2002d3f0                light_freq_th
                0x2002d408                light_freq_he
                0x2002d41c                light_freq_tu
                0x2002d430                light_freq_spa
                0x2002d440                light_freq_ja
                0x2002d450                light_freq_ko
                0x2002d464                light_freq_ru
                0x2002d47c                light_freq_en
                0x2002d488                light_freq_cnt
                0x2002d498                light_freq_cns
                0x2002d4a8                lanuage_setting_po
                0x2002d4bc                lanuage_setting_th
                0x2002d4cc                lanuage_setting_he
                0x2002d4e0                lanuage_setting_tu
                0x2002d4f0                lanuage_setting_spa
                0x2002d500                lanuage_setting_ja
                0x2002d510                lanuage_setting_ko
                0x2002d520                lanuage_setting_ru
                0x2002d540                lanuage_setting_en
                0x2002d554                lanuage_setting_cnt
                0x2002d55c                lanuage_setting_cns
                0x2002d564                auto_off_po
                0x2002d580                auto_off_th
                0x2002d5a8                auto_off_he
                0x2002d5c4                auto_off_tu
                0x2002d5d8                auto_off_spa
                0x2002d5e8                auto_off_ja
                0x2002d604                auto_off_ko
                0x2002d61c                auto_off_ru
                0x2002d630                auto_off_en
                0x2002d640                auto_off_cnt
                0x2002d650                auto_off_cns
                0x2002d660                date_time_po
                0x2002d66c                date_time_th
                0x2002d688                date_time_he
                0x2002d698                date_time_tu
                0x2002d6a4                date_time_spa
                0x2002d6b8                date_time_ja
                0x2002d6c8                date_time_ko
                0x2002d6d8                date_time_ru
                0x2002d6fc                date_time_en
                0x2002d70c                date_time_cnt
                0x2002d71c                date_time_cns
                0x2002d72c                yes_po
                0x2002d730                yes_th
                0x2002d73c                yes_he
                0x2002d744                yes_tu
                0x2002d74c                yes_spa
                0x2002d750                yes_ja
                0x2002d758                yes_ko
                0x2002d75c                yes_ru
                0x2002d764                yes_en
                0x2002d768                yes_cnt
                0x2002d76c                yes_cns
                0x2002d770                no_po
                0x2002d774                no_th
                0x2002d780                no_he
                0x2002d788                no_tu
                0x2002d790                no_spa
                0x2002d794                no_ja
                0x2002d7a0                no_ko
                0x2002d7ac                no_ru
                0x2002d7b4                no_en
                0x2002d7b8                no_cnt
                0x2002d7bc                no_cns
                0x2002d7c0                ok_po
                0x2002d7d0                ok_th
                0x2002d7e0                ok_he
                0x2002d7e8                ok_tu
                0x2002d7f0                ok_spa
                0x2002d7fc                ok_ja
                0x2002d804                ok_ko
                0x2002d80c                ok_ru
                0x2002d828                ok_en
                0x2002d82c                ok_cnt
                0x2002d834                ok_cns
                0x2002d83c                cancel_po
                0x2002d848                cancel_th
                0x2002d85c                cancel_he
                0x2002d864                cancel_tu
                0x2002d86c                cancel_spa
                0x2002d878                cancel_ja
                0x2002d888                cancel_ko
                0x2002d890                cancel_ru
                0x2002d8a0                cancel_en
                0x2002d8a8                cancel_cnt
                0x2002d8b0                cancel_cns
                0x2002d8b8                fre_60hz_cns
                0x2002d8c0                fre_50hz_cns
                0x2002d8c8                ten_minute_po
                0x2002d8d4                ten_minute_th
                0x2002d8e4                ten_minute_he
                0x2002d8f0                ten_minute_tu
                0x2002d8fc                ten_minute_spa
                0x2002d904                ten_minute_ja
                0x2002d910                ten_minute_ko
                0x2002d918                ten_minute_ru
                0x2002d924                ten_minute_en
                0x2002d930                ten_minute_cnt
                0x2002d93c                ten_minute_cns
                0x2002d948                five_minute_po
                0x2002d950                five_minute_th
                0x2002d960                five_minute_he
                0x2002d96c                five_minute_tu
                0x2002d978                five_minute_spa
                0x2002d980                five_minute_ja
                0x2002d988                five_minute_ko
                0x2002d990                five_minute_ru
                0x2002d998                five_minute_en
                0x2002d9a4                five_minute_cnt
                0x2002d9ac                five_minute_cns
                0x2002d9b4                three_minute_po
                0x2002d9c0                three_minute_th
                0x2002d9d0                three_minute_he
                0x2002d9dc                three_minute_tu
                0x2002d9e8                three_minute_spa
                0x2002d9f0                three_minute_ja
                0x2002d9f8                three_minute_ko
                0x2002da00                three_minute_ru
                0x2002da08                three_minute_en
                0x2002da18                three_minute_cnt
                0x2002da20                three_minute_cns
                0x2002da28                one_minute_po
                0x2002da34                one_minute_th
                0x2002da44                one_minute_he
                0x2002da50                one_minute_tu
                0x2002da5c                one_minute_spa
                0x2002da64                one_minute_ja
                0x2002da6c                one_minute_ko
                0x2002da74                one_minute_ru
                0x2002da7c                one_minute_en
                0x2002da88                one_minute_cnt
                0x2002da90                one_minute_cns
                0x2002da98                on_po
                0x2002daa0                on_th
                0x2002dab0                on_he
                0x2002dabc                on_tu
                0x2002dac4                on_spa
                0x2002dad0                on_ja
                0x2002dad8                on_ko
                0x2002dadc                on_ru
                0x2002dae4                on_en
                0x2002dae8                on_cnt
                0x2002daec                on_cns
                0x2002daf0                off_po
                0x2002dafc                off_th
                0x2002db08                off_he
                0x2002db14                off_tu
                0x2002db1c                off_spa
                0x2002db28                off_ja
                0x2002db30                off_ko
                0x2002db38                off_ru
                0x2002db44                off_en
                0x2002db48                off_cnt
                0x2002db4c                off_cns
                0x2002db50                polish
                0x2002db58                thai
                0x2002db64                hebrew
                0x2002db70                turkey
                0x2002db7c                spanish
                0x2002db88                japanese
                0x2002db94                korean
                0x2002dba0                russian
                0x2002dbb0                english
                0x2002dbb8                traditional_chinese
                0x2002dbc8                simplified_chinese
                0x2002dbd8                some_chars
 .rodata        0x2002dc20       0x28 ./Debug/menu_menu_setting.c.o
                0x2002dc20                tbl_Gsensor_senstivity
                0x2002dc24                tbl_powerSaveCnt
                0x2002dc34                tbl_poweroff
                0x2002dc3c                tbl_fast_view_time
                0x2002dc40                tbl_record_video_s
 .rodata        0x2002dc48       0x30 ./Debug/rtc_rtc.c.o
                0x2002dc48                daysPerMonth
 .rodata        0x2002dc78       0x40 ./Debug/led_led.c.o
                0x2002dc78                u16LedParam_GREEN
                0x2002dc98                u16LedParam_RED
 .rodata        0x2002dcb8       0x40 libs\libjpeg.a(jpeg_dec.o)
 .rodata        0x2002dcf8       0x30 libs\libfs.a(ff.o)
 .rodata        0x2002dd28       0x28 libs\libusb.a(usb_device_mass.o)
                0x2002dd28                device_inquiry_data
                0x2002dd4c                gabSCSIModeSense
 .rodata        0x2002dd50       0x48 libs\libusb.a(usb_dev_audio.o)
                0x2002dd50                UacVolCtrlSettings
                0x2002dd58                audioSample
 .rodata        0x2002dd98      0x260 libs\libusb.a(usb_device_enum.o)
                0x2002dd98                DEVICE_DESC_DATA
                0x2002ddac                CONFIG_DESC_DATA_UVC
                0x2002df98                UsbLanguageID
                0x2002df9c                UsbStrDescManufacturer
                0x2002dfac                UsbStrDescProduct
                0x2002dfc8                UsbStrDescSerialNumber
                0x2002dfe8                DEV_QAULIFIER_DESC_DATA
                0x2002dff4                CONFIG_DATA
 .rodata        0x2002dff8       0x28 libs\libusb.a(usb_device_video.o)
                0x2002dff8                UVC_Still_Probe_Commit_Default
                0x2002e004                uvc_video_probe_commit_default
 .rodata        0x2002e020       0x18 libs\libfat.a(fat_fileorder.o)
 *(.rodata.*)
 .rodata.str1.4
                0x2002e038       0xf2 ./Debug/audio_adc_audio_adc.c.o
                                 0xf8 (size before relaxing)
 *fill*         0x2002e12a        0x2 00
 .rodata.str1.4
                0x2002e12c        0xf ./Debug/audio_dac_audio_dac.c.o
                                 0x10 (size before relaxing)
 *fill*         0x2002e13b        0x1 00
 .rodata.str1.4
                0x2002e13c        0xb ./Debug/common_common.c.o
                                  0xc (size before relaxing)
 *fill*         0x2002e147        0x1 00
 .rodata.str1.4
                0x2002e148       0x76 ./Debug/csi_csi.c.o
                                 0x78 (size before relaxing)
 *fill*         0x2002e1be        0x2 00
 .rodata.str1.4
                0x2002e1c0       0x2e ./Debug/csi_csi_isr.c.o
                                 0x30 (size before relaxing)
 *fill*         0x2002e1ee        0x2 00
 .rodata.str1.4
                0x2002e1f0       0x25 ./Debug/csi_csi_timeinfo.c.o
                                 0x28 (size before relaxing)
 *fill*         0x2002e215        0x3 00
 .rodata.str1.4
                0x2002e218      0x373 ./Debug/fat_api_fat_api.c.o
                                0x378 (size before relaxing)
 *fill*         0x2002e58b        0x1 00
 .rodata.str1.4
                0x2002e58c        0x7 ./Debug/int_int.c.o
                                  0x8 (size before relaxing)
 *fill*         0x2002e593        0x1 00
 .rodata.str1.4
                0x2002e594        0xb ./Debug/lcd_osd.c.o
                                  0xc (size before relaxing)
 *fill*         0x2002e59f        0x1 00
 .rodata.str1.4
                0x2002e5a0       0x2d ./Debug/lcd_lcd_nodisplay.c.o
                                 0x30 (size before relaxing)
 *fill*         0x2002e5cd        0x3 00
 .rodata.str1.4
                0x2002e5d0       0x13 ./Debug/main_main.c.o
                                 0x14 (size before relaxing)
 *fill*         0x2002e5e3        0x1 00
 .rodata.str1.4
                0x2002e5e4       0x18 ./Debug/menu_menu_display.c.o
 .rodata.str1.4
                0x2002e5fc      0x60b ./Debug/menu_menu_struct.c.o
                                0x60c (size before relaxing)
 *fill*         0x2002ec07        0x1 00
 .rodata.str1.4
                0x2002ec08      0x129 ./Debug/menu_menu_setting.c.o
                                0x134 (size before relaxing)
 *fill*         0x2002ed31        0x3 00
 .rodata.str1.4
                0x2002ed34        0xb ./Debug/msg_adkey.c.o
                                  0xc (size before relaxing)
 *fill*         0x2002ed3f        0x1 00
 .rodata.str1.4
                0x2002ed40      0x131 ./Debug/play_avi_player.c.o
                                0x134 (size before relaxing)
 *fill*         0x2002ee71        0x3 00
 .rodata.str1.4
                0x2002ee74       0x49 ./Debug/play_play_picture.c.o
                                 0x4c (size before relaxing)
 *fill*         0x2002eebd        0x3 00
 .rodata.str1.4
                0x2002eec0       0xa4 ./Debug/rtc_rtc.c.o
 .rodata.str1.4
                0x2002ef64      0x17b ./Debug/sd_sd_ext.c.o
                                0x180 (size before relaxing)
 *fill*         0x2002f0df        0x1 00
 .rodata.str1.4
                0x2002f0e0        0xd ./Debug/sensor_sensor_gc0308.c.o
                                 0x10 (size before relaxing)
 *fill*         0x2002f0ed        0x3 00
 .rodata.str1.4
                0x2002f0f0      0x174 ./Debug/sys_sys.c.o
                                0x1b0 (size before relaxing)
 .rodata.str1.4
                0x2002f264        0x4 ./Debug/uart_uart.c.o
                                  0x8 (size before relaxing)
 .rodata.str1.4
                0x2002f268       0xb3 ./Debug/task_task.c.o
                                 0xb4 (size before relaxing)
 *fill*         0x2002f31b        0x1 00
 .rodata.str1.4
                0x2002f31c       0xdd ./Debug/task_task_video.c.o
                                 0xec (size before relaxing)
 *fill*         0x2002f3f9        0x3 00
 .rodata.str1.4
                0x2002f3fc       0x71 ./Debug/task_task_photo.c.o
                                 0x84 (size before relaxing)
 *fill*         0x2002f46d        0x3 00
 .rodata.str1.4
                0x2002f470       0x4e ./Debug/task_task_play.c.o
                                 0x54 (size before relaxing)
 *fill*         0x2002f4be        0x2 00
 .rodata.str1.4
                0x2002f4c0       0x82 ./Debug/task_task_usb_device.c.o
                                 0x84 (size before relaxing)
 *fill*         0x2002f542        0x2 00
 .rodata.str1.4
                0x2002f544       0x98 ./Debug/task_task_holdMode.c.o
                                 0xac (size before relaxing)
 .rodata.str1.4
                0x2002f5dc       0x66 ./Debug/tvout_tvout.c.o
                                 0x68 (size before relaxing)
 *fill*         0x2002f642        0x2 00
 .rodata.str1.4
                0x2002f644       0x1a libs\libjpeg.a(jpeg_enc.o)
                                 0x1c (size before relaxing)
 *fill*         0x2002f65e        0x2 00
 .rodata.str1.4
                0x2002f660        0xf libs\libjpeg.a(jpeg_dec.o)
                                 0x10 (size before relaxing)
 .rodata.str1.4
                0x00000000        0x4 libs\libfs.a(fat_format.o)
 *fill*         0x2002f66f        0x1 00
 .rodata.str1.4
                0x2002f670       0xc4 libs\libfs.a(ff.o)
 .rodata.str1.4
                0x2002f734       0x20 libs\libfs.a(diskio.o)
 .rodata.str1.4
                0x2002f754       0x34 libs\libusb.a(usb_device_mass.o)
                                 0x4c (size before relaxing)
 .rodata.str1.4
                0x2002f788       0x40 libs\libusb.a(usb_dev_audio.o)
 .rodata.str1.4
                0x2002f7c8       0xce libs\libusb.a(usb_device_enum.o)
                                 0xd0 (size before relaxing)
 *fill*         0x2002f896        0x2 00
 .rodata.str1.4
                0x2002f898        0xa libs\libusb.a(usb_device_video.o)
                                  0xc (size before relaxing)
 *fill*         0x2002f8a2        0x2 00
 .rodata.str1.4
                0x2002f8a4       0x98 libs\libfat.a(fat.o)
 .rodata.str1.4
                0x2002f93c        0x7 libs\libfat.a(fat_fileorder.o)
                                 0x24 (size before relaxing)
 *fill*         0x2002f943        0x1 00
 .rodata.str1.4
                0x2002f944       0x70 libs\libsd.a(sd.o)
 *(.data)
 .data          0x2002f9b4       0x48 ./Debug/audio_adc_audio_adc.c.o
                0x2002f9b4                audio_buffer_ptr
                0x2002f9f0                dac_buf_0
                0x2002f9f4                dac_buf_1
 .data          0x2002f9fc       0x38 ./Debug/audio_dac_audio_dac.c.o
 .data          0x2002fa34        0x0 ./Debug/common_common.c.o
 .data          0x2002fa34        0x0 ./Debug/csi_csi.c.o
 .data          0x2002fa34        0x0 ./Debug/csi_csi_isr.c.o
 .data          0x2002fa34      0x680 ./Debug/csi_csi_timeinfo.c.o
                0x2002fa34                CSI_FONT_ZERO
                0x2002fab4                CSI_FONT_ONE
                0x2002fb34                CSI_FONT_TWO
                0x2002fbb4                CSI_FONT_THREE
                0x2002fc34                CSI_FONT_FOUR
                0x2002fcb4                CSI_FONT_FIVE
                0x2002fd34                CSI_FONT_SIX
                0x2002fdb4                CSI_FONT_SEVEN
                0x2002fe34                CSI_FONT_EIGHT
                0x2002feb4                CSI_FONT_NINE
                0x2002ff34                CSI_FONT_COLON
                0x2002ffb4                CSI_FONT_SLASH
                0x20030034                CSI_FONT_HIFIN
 .data          0x200300b4        0x0 ./Debug/fat_api_fat_api.c.o
 .data          0x200300b4        0x0 ./Debug/font_font.c.o
 .data          0x200300b4        0x0 ./Debug/gpdma_gpdma.c.o
 .data          0x200300b4        0x0 ./Debug/i2c_i2c.c.o
 .data          0x200300b4        0x0 ./Debug/int_int.c.o
 .data          0x200300b4        0x0 ./Debug/lcd_lcdc.c.o
 .data          0x200300b4        0x0 ./Debug/lcd_osd.c.o
 .data          0x200300b4        0x0 ./Debug/lcd_lcd_driver.c.o
 .data          0x200300b4        0x0 ./Debug/lcd_lcd_interface.c.o
 .data          0x200300b4        0x0 ./Debug/lcd_lcd_tdo24theb2.c.o
 .data          0x200300b4        0x0 ./Debug/lcd_lcd_ili8961.c.o
 .data          0x200300b4       0xc8 ./Debug/lcd_lcd_nodisplay.c.o
                0x200300b4                table_init
 .data          0x2003017c        0x0 ./Debug/lcd_lcd_3029.c.o
 .data          0x2003017c        0x0 ./Debug/lcd_lcd_61505.c.o
 .data          0x2003017c        0x0 ./Debug/lcd_lcd_hx8367.c.o
 .data          0x2003017c        0x0 ./Debug/lcd_lcd_7781.c.o
 .data          0x2003017c        0x0 ./Debug/lcd_lcd_ili6480.c.o
 .data          0x2003017c        0x0 ./Debug/lcd_lcd_61505W.c.o
 .data          0x2003017c        0x0 ./Debug/lcd_lcd_3029C.c.o
 .data          0x2003017c        0x0 ./Debug/lcd_lcd_9303.c.o
 .data          0x2003017c        0x0 ./Debug/lcd_lcd_9312.c.o
 .data          0x2003017c        0x0 ./Debug/lcd_lcd_ili9225.c.o
 .data          0x2003017c        0x0 ./Debug/main_main.c.o
 .data          0x2003017c        0x0 ./Debug/menu_menu_display.c.o
 .data          0x2003017c      0x134 ./Debug/menu_menu_struct.c.o
                0x2003017c                group_file_delete
                0x200301a8                group_file_lock
                0x200301d4                group_low_power
                0x20030200                group_format_sd_fail
                0x2003022c                group_format_sd_succeed
                0x20030258                group_format_sd_ing
                0x20030284                group_no_card
 .data          0x200302b0        0x1 ./Debug/menu_menu_setting.c.o
                0x200302b0                light_sta
 .data          0x200302b1        0x0 ./Debug/msg_adkey.c.o
 .data          0x200302b1        0x0 ./Debug/msg_msg.c.o
 .data          0x200302b1        0x0 ./Debug/play_avi_player.c.o
 .data          0x200302b1        0x0 ./Debug/play_gp_fifo.c.o
 .data          0x200302b1        0x0 ./Debug/play_play_picture.c.o
 .data          0x200302b1        0x0 ./Debug/rtc_rtc.c.o
 .data          0x200302b1        0x0 ./Debug/sd_sd_ext.c.o
 .data          0x200302b1        0x0 ./Debug/sensor_sensor.c.o
 *fill*         0x200302b1        0x3 00
 .data          0x200302b4      0x228 ./Debug/sensor_sensor_gc0308.c.o
                0x200302b4                GC0308InitTable
 .data          0x200304dc        0x0 ./Debug/sensor_sensor_nt99140.c.o
 .data          0x200304dc        0x0 ./Debug/sensor_sensor_ov7670.c.o
 .data          0x200304dc        0x0 ./Debug/sensor_sensor_ov9710.c.o
 .data          0x200304dc        0x0 ./Debug/sensor_sensor_nt99141.c.o
 .data          0x200304dc        0x0 ./Debug/sensor_sensor_bf3925.c.o
 .data          0x200304dc        0x0 ./Debug/sensor_sensor_siv121DS.c.o
 .data          0x200304dc        0x0 ./Debug/sensor_sensor_ov7725.c.o
 .data          0x200304dc        0x0 ./Debug/sensor_sensor_nt99240.c.o
 .data          0x200304dc        0x0 ./Debug/sensor_sensor_siv100B.c.o
 .data          0x200304dc        0x0 ./Debug/startup_spi_boot_cfg.S.o
 .data          0x200304dc        0x0 ./Debug/sys_sys.c.o
 .data          0x200304dc        0x0 ./Debug/timer_timer.c.o
 .data          0x200304dc        0x4 ./Debug/timer_timer_isr.c.o
 .data          0x200304e0        0x0 ./Debug/uart_uart.c.o
 .data          0x200304e0        0x0 ./Debug/spi_spi.c.o
 .data          0x200304e0        0x0 ./Debug/task_task.c.o
 .data          0x200304e0      0x8f0 ./Debug/task_task_video.c.o
                0x200304e0                Lcd_osd_sys_time
 .data          0x20030dd0        0x0 ./Debug/task_task_photo.c.o
 .data          0x20030dd0        0x0 ./Debug/task_task_play.c.o
 .data          0x20030dd0        0x0 ./Debug/task_task_usb_device.c.o
 .data          0x20030dd0        0x0 ./Debug/task_task_holdMode.c.o
 .data          0x20030dd0        0x0 ./Debug/tvout_tvout.c.o
 .data          0x20030dd0        0x0 ./Debug/led_led.c.o
 .data          0x20030dd0        0x0 ./Debug/g_sensor_g_sensor.c.o
 .data          0x20030dd0        0x0 ./Debug/g_sensor_g_sensor_dmard07.c.o
 .data          0x20030dd0        0x0 ./Debug/g_sensor_g_sensor_gma301a.c.o
 .data          0x20030dd0        0x0 ./Debug/g_sensor_g_sensor_null.c.o
 .data          0x20030dd0        0x0 d:/MinGW-4.7.1/arm-elf/lib\libc.a(lib_a-strcpy.o)
 .data          0x20030dd0        0x0 d:/MinGW-4.7.1/arm-elf/lib\libc.a(lib_a-strlen.o)
 .data          0x20030dd0        0x0 d:/MinGW-4.7.1/lib/gcc/arm-elf/4.6.0\libgcc.a(_udivsi3.o)
 .data          0x20030dd0        0x0 d:/MinGW-4.7.1/lib/gcc/arm-elf/4.6.0\libgcc.a(_divsi3.o)
 .data          0x20030dd0        0x0 d:/MinGW-4.7.1/lib/gcc/arm-elf/4.6.0\libgcc.a(_umodsi3.o)
 .data          0x20030dd0        0x0 d:/MinGW-4.7.1/lib/gcc/arm-elf/4.6.0\libgcc.a(_dvmd_tls.o)
 .data          0x20030dd0        0x0 libs\libjpeg.a(jpeg_enc.o)
 .data          0x20030dd0        0x0 libs\libjpeg.a(jpeg_isr.o)
 .data          0x20030dd0        0x0 libs\libjpeg.a(jpeg_dec.o)
 .data          0x20030dd0        0x0 libs\libjpeg.a(jpeg_linebuffer.o)
 .data          0x20030dd0        0x0 libs\libfs.a(fat_format.o)
 .data          0x20030dd0        0x0 libs\libfs.a(ff.o)
 .data          0x20030dd0        0x0 libs\libfs.a(diskio.o)
 .data          0x20030dd0        0x0 libs\libusb.a(usb_device_mass.o)
 .data          0x20030dd0        0x0 libs\libusb.a(usb_dev_audio.o)
 .data          0x20030dd0       0x20 libs\libusb.a(usb_device_enum.o)
                0x20030dd0                CONFIG_DESC_DATA
 .data          0x20030df0        0x0 libs\libusb.a(usb.o)
 .data          0x20030df0       0x5c libs\libusb.a(usb_device_video.o)
                0x20030df0                uvc_pu_power_line_frequency_def
                0x20030df1                uvc_pu_power_line_frequency_info
                0x20030df2                uvc_pu_power_line_frequency_max
                0x20030df4                uvc_pu_backlight_compensation_def
                0x20030df6                uvc_pu_backlight_compensation_info
                0x20030df8                uvc_pu_backlight_compensation_min
                0x20030dfc                uvc_pu_backlight_compensation_max
                0x20030e00                uvc_pu_contrast_cur
                0x20030e04                uvc_pu_contrast_res
                0x20030e06                uvc_pu_contrast_info
                0x20030e08                uvc_pu_contrast_max
                0x20030e0c                uvc_pu_saturation_cur
                0x20030e10                uvc_pu_saturation_res
                0x20030e12                uvc_pu_saturation_info
                0x20030e14                uvc_pu_saturation_max
                0x20030e18                uvc_pu_sharpness_cur
                0x20030e1c                uvc_pu_sharpness_res
                0x20030e1e                uvc_pu_sharpness_info
                0x20030e20                uvc_pu_sharpness_max
                0x20030e24                uvc_pu_gamma_cur
                0x20030e28                uvc_pu_gamma_res
                0x20030e2a                uvc_pu_gamma_info
                0x20030e2c                uvc_pu_gamma_min
                0x20030e30                uvc_pu_gamma_max
                0x20030e34                uvc_pu_brightness_cur
                0x20030e38                uvc_pu_brightness_res
                0x20030e3a                uvc_pu_brightness_info
                0x20030e3c                uvc_pu_brightness_max
                0x20030e40                uvc_pu_hue_res
                0x20030e42                uvc_pu_hue_info
                0x20030e44                uvc_pu_hue_min
                0x20030e48                uvc_pu_hue_max
 .data          0x20030e4c        0x0 libs\libusb.a(update.o)
 .data          0x20030e4c        0x0 libs\libstartup.a(cpu.o)
 .data          0x20030e4c        0x0 libs\libstartup.a(lowPower.o)
 .data          0x20030e4c        0x0 libs\libstartup.a(startup.o)
 .data          0x20030e4c        0x0 libs\libstartup.a(BootSec.o)
 .data          0x20030e4c        0x0 libs\libfat.a(fat.o)
 .data          0x20030e4c        0x0 libs\libfat.a(fat_fileorder.o)
 .data          0x20030e4c        0x0 libs\libsd.a(sd.o)
                0x20030e60                . = ALIGN (0x20)
 *fill*         0x20030e4c       0x14 00
 *(.fat_temp)
                0x20030e60                . = ALIGN (0x20)
 *(.usb_var_cbw)
 .usb_var_cbw   0x20030e60       0x40 libs\libusb.a(usb_device_mass.o)
                0x20030e60                g_cbw_buf
                0x20030ea0                . = ALIGN (0x20)
 *(.usb_dat_buf)
 .usb_dat_buf   0x20030ea0      0x200 libs\libusb.a(usb_device_mass.o)
                0x20030ea0                g_usb_dat_buf

.glue_7         0x200310a0        0x0
 .glue_7        0x00000000        0x0 linker stubs

.glue_7t        0x200310a0        0x0
 .glue_7t       0x00000000        0x0 linker stubs

.vfp11_veneer   0x200310a0        0x0
 .vfp11_veneer  0x00000000        0x0 linker stubs

.v4_bx          0x200310a0        0x0
 .v4_bx         0x00000000        0x0 linker stubs

.iplt           0x200310a0        0x0
 .iplt          0x00000000        0x0 ./Debug/audio_adc_audio_adc.c.o

.bootsec        0x200310a0      0x200
 .bootsec       0x200310a0      0x200 libs\libstartup.a(BootSec.o)
                0x20031288                .bootsect

.igot.plt       0x200312a0        0x0
 .igot.plt      0x00000000        0x0 ./Debug/audio_adc_audio_adc.c.o

.usb_cam_test_buf
                0x200312a0      0xbac
 .usb_cam_test_buf
                0x200312a0      0xbac libs\libusb.a(usb_device_video.o)
                0x200312a0                usb_cam_buf

.rel.dyn        0x20031e4c        0x0
 .rel.iplt      0x00000000        0x0 ./Debug/audio_adc_audio_adc.c.o

.bss            0x20050000     0xf428
                0x20050000                __bss_start = .
 *(.bss)
 .bss           0x20050000       0x10 ./Debug/audio_adc_audio_adc.c.o
                0x20050004                adc_single_double_ch
                0x20050008                adc_sample_rate
                0x2005000c                audio_offset
 .bss           0x20050010        0x3 ./Debug/audio_dac_audio_dac.c.o
                0x20050011                record_botton_mem
 .bss           0x20050013        0x0 ./Debug/common_common.c.o
 *fill*         0x20050013        0x1 00
 .bss           0x20050014        0x8 ./Debug/csi_csi.c.o
 .bss           0x2005001c        0x1 ./Debug/csi_csi_isr.c.o
                0x2005001c                cnt
 *fill*         0x2005001d        0x3 00
 .bss           0x20050020       0x80 ./Debug/csi_csi_timeinfo.c.o
                0x20050020                CSI_FONT_NULL
 .bss           0x200500a0       0x24 ./Debug/fat_api_fat_api.c.o
                0x200500a0                delResult
                0x200500c0                bPhotoScalFlag
                0x200500c1                bDeleteFile
 .bss           0x200500c4        0x0 ./Debug/font_font.c.o
 .bss           0x200500c4        0x0 ./Debug/gpdma_gpdma.c.o
 .bss           0x200500c4        0x3 ./Debug/i2c_i2c.c.o
                0x200500c6                bI2CBusy_Flag
 .bss           0x200500c7        0x1 ./Debug/int_int.c.o
                0x200500c7                bIRQStateFlag
 .bss           0x200500c8        0x0 ./Debug/lcd_lcdc.c.o
 .bss           0x200500c8        0x0 ./Debug/lcd_osd.c.o
 .bss           0x200500c8        0x0 ./Debug/lcd_lcd_driver.c.o
 .bss           0x200500c8        0x0 ./Debug/lcd_lcd_interface.c.o
 .bss           0x200500c8        0x0 ./Debug/lcd_lcd_tdo24theb2.c.o
 .bss           0x200500c8        0x0 ./Debug/lcd_lcd_ili8961.c.o
 .bss           0x200500c8        0x0 ./Debug/lcd_lcd_nodisplay.c.o
 .bss           0x200500c8        0x0 ./Debug/lcd_lcd_3029.c.o
 .bss           0x200500c8        0x0 ./Debug/lcd_lcd_61505.c.o
 .bss           0x200500c8        0x0 ./Debug/lcd_lcd_hx8367.c.o
 .bss           0x200500c8        0x0 ./Debug/lcd_lcd_7781.c.o
 .bss           0x200500c8        0x0 ./Debug/lcd_lcd_ili6480.c.o
 .bss           0x200500c8        0x0 ./Debug/lcd_lcd_61505W.c.o
 .bss           0x200500c8        0x0 ./Debug/lcd_lcd_3029C.c.o
 .bss           0x200500c8        0x0 ./Debug/lcd_lcd_9303.c.o
 .bss           0x200500c8        0x0 ./Debug/lcd_lcd_9312.c.o
 .bss           0x200500c8        0x0 ./Debug/lcd_lcd_ili9225.c.o
 .bss           0x200500c8        0x0 ./Debug/main_main.c.o
 .bss           0x200500c8        0x0 ./Debug/menu_menu_display.c.o
 .bss           0x200500c8        0x0 ./Debug/menu_menu_struct.c.o
 .bss           0x200500c8        0x0 ./Debug/menu_menu_setting.c.o
 .bss           0x200500c8       0x20 ./Debug/msg_adkey.c.o
 .bss           0x200500e8        0x0 ./Debug/msg_msg.c.o
 .bss           0x200500e8        0x2 ./Debug/play_avi_player.c.o
                0x200500e8                bOpenBackLightFlag
                0x200500e9                bPlayVideo_DacFlag
 .bss           0x200500ea        0x0 ./Debug/play_gp_fifo.c.o
 .bss           0x200500ea        0x0 ./Debug/play_play_picture.c.o
 .bss           0x200500ea        0x0 ./Debug/rtc_rtc.c.o
 *fill*         0x200500ea        0x2 00
 .bss           0x200500ec        0x8 ./Debug/sd_sd_ext.c.o
                0x200500ec                bSDCardStatus
 .bss           0x200500f4        0x0 ./Debug/sensor_sensor.c.o
 .bss           0x200500f4        0x0 ./Debug/sensor_sensor_gc0308.c.o
 .bss           0x200500f4        0x0 ./Debug/sensor_sensor_nt99140.c.o
 .bss           0x200500f4        0x0 ./Debug/sensor_sensor_ov7670.c.o
 .bss           0x200500f4        0x0 ./Debug/sensor_sensor_ov9710.c.o
 .bss           0x200500f4        0x0 ./Debug/sensor_sensor_nt99141.c.o
 .bss           0x200500f4        0x0 ./Debug/sensor_sensor_bf3925.c.o
 .bss           0x200500f4        0x0 ./Debug/sensor_sensor_siv121DS.c.o
 .bss           0x200500f4        0x0 ./Debug/sensor_sensor_ov7725.c.o
 .bss           0x200500f4        0x0 ./Debug/sensor_sensor_nt99240.c.o
 .bss           0x200500f4        0x0 ./Debug/sensor_sensor_siv100B.c.o
 .bss           0x200500f4        0x0 ./Debug/startup_spi_boot_cfg.S.o
 .bss           0x200500f4        0x1 ./Debug/sys_sys.c.o
 .bss           0x200500f5        0x0 ./Debug/timer_timer.c.o
 .bss           0x200500f5        0x0 ./Debug/timer_timer_isr.c.o
 .bss           0x200500f5        0x0 ./Debug/uart_uart.c.o
 .bss           0x200500f5        0x1 ./Debug/spi_spi.c.o
                0x200500f5                bSFBusy_Flag
 .bss           0x200500f6        0x1 ./Debug/task_task.c.o
                0x200500f6                video_enlager
 *fill*         0x200500f7        0x1 00
 .bss           0x200500f8        0x8 ./Debug/task_task_video.c.o
 .bss           0x20050100        0x1 ./Debug/task_task_photo.c.o
                0x20050100                bFastViewFlag
 .bss           0x20050101        0x1 ./Debug/task_task_play.c.o
                0x20050101                bTaskPlayExit_Flag
 .bss           0x20050102        0x0 ./Debug/task_task_usb_device.c.o
 *fill*         0x20050102        0x2 00
 .bss           0x20050104        0x4 ./Debug/task_task_holdMode.c.o
                0x20050104                powerSaveFlag
 .bss           0x20050108       0x14 ./Debug/tvout_tvout.c.o
                0x20050114                enlager_offset_len
 .bss           0x2005011c        0xc ./Debug/led_led.c.o
                0x20050124                g_SystemState
 .bss           0x20050128        0x1 ./Debug/g_sensor_g_sensor.c.o
                0x20050128                bGsensor_Lock
 .bss           0x20050129        0x0 ./Debug/g_sensor_g_sensor_dmard07.c.o
 .bss           0x20050129        0x0 ./Debug/g_sensor_g_sensor_gma301a.c.o
 .bss           0x20050129        0x0 ./Debug/g_sensor_g_sensor_null.c.o
 .bss           0x20050129        0x0 d:/MinGW-4.7.1/arm-elf/lib\libc.a(lib_a-strcpy.o)
 .bss           0x20050129        0x0 d:/MinGW-4.7.1/arm-elf/lib\libc.a(lib_a-strlen.o)
 .bss           0x20050129        0x0 d:/MinGW-4.7.1/lib/gcc/arm-elf/4.6.0\libgcc.a(_udivsi3.o)
 .bss           0x20050129        0x0 d:/MinGW-4.7.1/lib/gcc/arm-elf/4.6.0\libgcc.a(_divsi3.o)
 .bss           0x20050129        0x0 d:/MinGW-4.7.1/lib/gcc/arm-elf/4.6.0\libgcc.a(_umodsi3.o)
 .bss           0x20050129        0x0 d:/MinGW-4.7.1/lib/gcc/arm-elf/4.6.0\libgcc.a(_dvmd_tls.o)
 *fill*         0x20050129        0x3 00
 .bss           0x2005012c      0x28c libs\libjpeg.a(jpeg_enc.o)
 .bss           0x200503b8        0x0 libs\libjpeg.a(jpeg_isr.o)
 .bss           0x200503b8       0x24 libs\libjpeg.a(jpeg_dec.o)
 .bss           0x200503dc       0x10 libs\libjpeg.a(jpeg_linebuffer.o)
 .bss           0x200503ec        0x0 libs\libfs.a(fat_format.o)
 .bss           0x200503ec       0x18 libs\libfs.a(ff.o)
                0x200503f8                pDeleteFS
 .bss           0x20050404        0x0 libs\libfs.a(diskio.o)
 .bss           0x20050404        0x8 libs\libusb.a(usb_device_mass.o)
                0x20050404                usb_timeout
                0x20050408                usb_dma_occupy
 .bss           0x2005040c        0x2 libs\libusb.a(usb_dev_audio.o)
                0x2005040c                UacSampFreqChange
                0x2005040d                uac_on
 *fill*         0x2005040e        0x2 00
 .bss           0x20050410        0x8 libs\libusb.a(usb_device_enum.o)
                0x20050410                ep1_max_size
                0x20050414                ep0_current_state
                0x20050415                usb_dev_addr
                0x20050416                uvc_on
 .bss           0x20050418        0x8 libs\libusb.a(usb.o)
                0x20050418                usb_dma_timeout
                0x2005041c                Ep1Deal
 .bss           0x20050420       0x20 libs\libusb.a(usb_device_video.o)
                0x20050420                bStillTriggerKick
                0x20050424                uvc_pu_power_line_frequency_min
                0x20050428                uvc_pu_contrast_min
                0x2005042c                uvc_pu_saturation_min
                0x20050430                uvc_pu_sharpness_min
                0x20050434                uvc_pu_brightness_min
                0x20050438                uvc_pu_hue_cur
                0x2005043a                toggleframe
                0x2005043c                bStillImageFlag
 .bss           0x20050440        0x0 libs\libusb.a(update.o)
 .bss           0x20050440        0x0 libs\libstartup.a(cpu.o)
 .bss           0x20050440        0x0 libs\libstartup.a(lowPower.o)
 .bss           0x20050440        0x0 libs\libstartup.a(startup.o)
 .bss           0x20050440        0x0 libs\libstartup.a(BootSec.o)
 .bss           0x20050440        0x1 libs\libfat.a(fat.o)
 *fill*         0x20050441        0x3 00
 .bss           0x20050444        0xc libs\libfat.a(fat_fileorder.o)
 .bss           0x20050450        0x0 libs\libsd.a(sd.o)
 *(COMMON)
 COMMON         0x20050450      0x17c ./Debug/audio_adc_audio_adc.c.o
                0x20050450                usb_EP1_class
                0x20050454                usb_varm
                0x2005048c                seg_info
                0x20050494                dev_ctl
                0x200504a8                csi_buf_point
                0x200504a9                usb_type
                0x200504aa                sd_dis_flag
                0x200504ac                p_enp
                0x200504b0                usb_enum_type
                0x200504b4                bs_buf
                0x200504f4                udev
                0x2005050c                p_dev
                0x20050510                device_online
                0x20050514                usb_dev_req
                0x2005051c                tpbulk_block
                0x2005055c                ep3buf
                0x2005059c                pSetReqCallback
                0x200505a0                setup_pkt
                0x200505a8                pkt_per_sec
                0x200505a9                EP0WaitForSetReqData
                0x200505ac                p_ifc
                0x200505b0                agcflg
                0x200505b4                jpeg_isrfp
                0x200505b8                usb_var
                0x200505bc                p_cfg
                0x200505c0                usbstack
 COMMON         0x200505cc        0x1 ./Debug/audio_dac_audio_dac.c.o
                0x200505cc                dac_block_flag
 *fill*         0x200505cd        0x3 00
 COMMON         0x200505d0       0x19 ./Debug/csi_csi.c.o
                0x200505d0                u32csi_Dma_Size_H
                0x200505d4                u32csi_Dma_Size_V
                0x200505d8                u32sdr_Buff_Len
                0x200505dc                bMD_StopVideo_Flag
                0x200505e0                u32MDCnt
                0x200505e4                csi_timeout
                0x200505e8                bSameSizeFlag
 *fill*         0x200505e9        0x3 00
 COMMON         0x200505ec        0x8 ./Debug/csi_csi_isr.c.o
                0x200505ec                bMD_Flag
                0x200505ed                bcsi_FrameEndFlag
                0x200505f0                u32csi_IntFlag
 COMMON         0x200505f4       0x2f ./Debug/csi_csi_timeinfo.c.o
                0x200505f4                TimerInfoPixelBuf
                0x200505f8                TimeInfoBuff
                0x2005060c                lastTimeCount
                0x20050610                TimeInfoCurrent
 *fill*         0x20050623       0x1d 00
 COMMON         0x20050640     0xd4e0 ./Debug/fat_api_fat_api.c.o
                0x20050640                bRecording_Display_Flag
                0x20050660                delFS
                0x200508a0                work_fatfs
                0x20050ae0                delCLST
                0x20050ae4                filename
                0x20050b00                index_filename
                0x20050b1c                bStopVideo_Flag
                0x20050b20                Fil
                0x20050d60                indexFil
                0x20050fa0                fnlist
                0x2005cb20                clmt
 COMMON         0x2005db20        0x8 ./Debug/font_font.c.o
                0x2005db20                FontLib
 COMMON         0x2005db28      0x440 ./Debug/lcd_osd.c.o
                0x2005db28                OSD1Inf
                0x2005db3c                gImage_palette
                0x2005df3c                OSD2Inf
                0x2005df50                OSD3Inf
                0x2005df64                OSD_changeFlag
 COMMON         0x2005df68        0x2 ./Debug/lcd_lcd_driver.c.o
                0x2005df68                blcd_FrameEnd_Flag
                0x2005df69                blcd_writeback_Flag
 *fill*         0x2005df6a        0x2 00
 COMMON         0x2005df6c       0x4c ./Debug/menu_menu_display.c.o
                0x2005df6c                cur_menu
                0x2005df74                menu_mgroup
 COMMON         0x2005dfb8       0x24 ./Debug/menu_menu_setting.c.o
                0x2005dfb8                sys_ctl
 COMMON         0x2005dfdc        0x1 ./Debug/msg_adkey.c.o
                0x2005dfdc                adc_step
 *fill*         0x2005dfdd        0x3 00
 COMMON         0x2005dfe0       0x17 ./Debug/msg_msg.c.o
                0x2005dfe0                msg_ctrl
                0x2005dfe8                msg_pool
 *fill*         0x2005dff7        0x1 00
 COMMON         0x2005dff8      0x22c ./Debug/play_avi_player.c.o
                0x2005dff8                g_VideoFrameBuf
                0x2005e008                g_AudioIndexFIFO
                0x2005e024                g_DecodeDispFrameBuf
                0x2005e034                g_AudioFrameBuf
                0x2005e044                g_DispFrameBuf
                0x2005e054                g_AudioIndexInfo
                0x2005e068                g_VideoIndexInfo
                0x2005e07c                g_AudioIndexBuf
                0x2005e090                g_DecodeDispFrameFIFO
                0x2005e0ac                g_DecodeVideoFrameBuf
                0x2005e0bc                g_DecodeVideoFrameFIFO
                0x2005e0d8                g_VideoIndexFIFO
                0x2005e0f4                g_IndexInfo
                0x2005e108                g_AVIFileInfo
                0x2005e15c                g_VideoIndexBuf
 COMMON         0x2005e224        0x4 ./Debug/sensor_sensor.c.o
                0x2005e224                u8Databytnum
                0x2005e225                u8SensorreadID
                0x2005e226                u8SensorwriteID
                0x2005e227                u8Addrbytnum
 COMMON         0x2005e228        0xc ./Debug/timer_timer_isr.c.o
                0x2005e228                u32Test_1msCnt
                0x2005e22c                u32Delay_1msCnt
                0x2005e230                u32Timer0_1msCnt
 COMMON         0x2005e234        0x8 ./Debug/task_task.c.o
                0x2005e234                task_ctl
 COMMON         0x2005e23c       0x30 ./Debug/task_task_video.c.o
                0x2005e23c                t_record_video
                0x2005e248                Total_record_timer_info
                0x2005e250                TimeInfo_for_record
                0x2005e264                Total_record_timer_current
 COMMON         0x2005e26c        0x8 ./Debug/task_task_photo.c.o
                0x2005e26c                t_photo
 COMMON         0x2005e274       0x10 ./Debug/task_task_play.c.o
                0x2005e274                play_file_num
                0x2005e278                t_play
                0x2005e280                play_file_total
 COMMON         0x2005e284        0x1 ./Debug/g_sensor_g_sensor.c.o
                0x2005e284                Gsensor_ID
 *fill*         0x2005e285        0x3 00
 COMMON         0x2005e288       0x9c libs\libjpeg.a(jpeg_enc.o)
                0x2005e288                g_stcJpegInfo
                0x2005e300                sam_audio_buffer_ptr
                0x2005e304                JpegFrame_locat_fifo
                0x2005e314                auido_sd_locat_fifo
 COMMON         0x2005e324        0x9 libs\libjpeg.a(jpeg_dec.o)
                0x2005e324                u32jpegSize_V
                0x2005e328                u32jpegSize_H
                0x2005e32c                jpdec_flag
 *fill*         0x2005e32d        0x3 00
 COMMON         0x2005e330        0xc libs\libjpeg.a(jpeg_linebuffer.o)
                0x2005e330                YUYVSrcBuff
                0x2005e334                WriteBack_cnt
                0x2005e338                YUYVDestBuff
 COMMON         0x2005e33c       0x44 libs\libfs.a(ff.o)
                0x2005e33c                removeChain_outptr
                0x2005e33d                removeChain_inptr
                0x2005e340                removeChain_pool
 COMMON         0x2005e380       0x25 libs\libusb.a(usb_device_mass.o)
                0x2005e380                g_cbw_cb
                0x2005e390                g_cbw_transfer_len
                0x2005e394                g_csw_status
                0x2005e395                g_bSenseKey
                0x2005e398                g_csw_data_residue
                0x2005e39c                g_cbw_tag
                0x2005e3a0                g_last_err
                0x2005e3a1                g_packet_len
                0x2005e3a2                g_bAdditionalSenseCode
                0x2005e3a3                g_cur_lun
                0x2005e3a4                g_bAddiSenseCodeQualifier
 *fill*         0x2005e3a5        0x3 00
 COMMON         0x2005e3a8       0x4d libs\libusb.a(usb_dev_audio.o)
                0x2005e3a8                usbep3buf
                0x2005e3ac                UacSampFreq
                0x2005e3b0                UacVolCtrlCur
                0x2005e3b2                UacMuteControl
                0x2005e3b3                AudioStreamingIsOn
                0x2005e3b4                ep0txbuf
                0x2005e3f4                AudioDataIndex
 *fill*         0x2005e3f5        0x3 00
 COMMON         0x2005e3f8       0x43 libs\libusb.a(usb_device_enum.o)
                0x2005e3f8                ep0_rx_buf
                0x2005e438                video_start
                0x2005e439                csr0_tmp
                0x2005e43a                tick
 *fill*         0x2005e43b        0x1 00
 COMMON         0x2005e43c       0x30 libs\libusb.a(usb_device_video.o)
                0x2005e43c                current_DMAADDR
                0x2005e440                pVideoBuf
                0x2005e444                uvc_video_probe_commit_value
                0x2005e45e                CsiLastPacketPending
                0x2005e460                lastPacketSize
                0x2005e464                csibufflag
                0x2005e468                m_CsiFrameDataPos
 COMMON         0x2005e46c        0x4 libs\libfat.a(fat.o)
                0x2005e46c                u32DataOffset
 COMMON         0x2005e470      0xfa2 libs\libfat.a(fat_fileorder.o)
                0x2005e470                RecFileNum
 *fill*         0x2005f412        0x2 00
 COMMON         0x2005f414       0x14 libs\libsd.a(sd.o)
                0x2005f414                g_stcSDInfo
                0x2005f428                . = ALIGN (0x4)
                0x2005f428                __bss_end = .
OUTPUT(./Debug/AX325X elf32-littlearm)

.debug_info     0x00000000    0x4c5d3
 .debug_info    0x00000000     0x1234 ./Debug/audio_adc_audio_adc.c.o
 .debug_info    0x00001234     0x1aa5 ./Debug/audio_dac_audio_dac.c.o
 .debug_info    0x00002cd9     0x12d8 ./Debug/common_common.c.o
 .debug_info    0x00003fb1     0x16d8 ./Debug/csi_csi.c.o
 .debug_info    0x00005689      0xcbf ./Debug/csi_csi_isr.c.o
 .debug_info    0x00006348     0x1143 ./Debug/csi_csi_timeinfo.c.o
 .debug_info    0x0000748b     0x2933 ./Debug/fat_api_fat_api.c.o
 .debug_info    0x00009dbe     0x1062 ./Debug/font_font.c.o
 .debug_info    0x0000ae20     0x1297 ./Debug/gpdma_gpdma.c.o
 .debug_info    0x0000c0b7      0xf7b ./Debug/i2c_i2c.c.o
 .debug_info    0x0000d032      0xc2d ./Debug/int_int.c.o
 .debug_info    0x0000dc5f     0x1698 ./Debug/lcd_lcdc.c.o
 .debug_info    0x0000f2f7     0x11f4 ./Debug/lcd_osd.c.o
 .debug_info    0x000104eb     0x13ae ./Debug/lcd_lcd_driver.c.o
 .debug_info    0x00011899     0x1454 ./Debug/lcd_lcd_interface.c.o
 .debug_info    0x00012ced      0xacf ./Debug/lcd_lcd_tdo24theb2.c.o
 .debug_info    0x000137bc      0xacf ./Debug/lcd_lcd_ili8961.c.o
 .debug_info    0x0001428b     0x1103 ./Debug/lcd_lcd_nodisplay.c.o
 .debug_info    0x0001538e      0xacf ./Debug/lcd_lcd_3029.c.o
 .debug_info    0x00015e5d      0xacf ./Debug/lcd_lcd_61505.c.o
 .debug_info    0x0001692c      0xacf ./Debug/lcd_lcd_hx8367.c.o
 .debug_info    0x000173fb      0xacf ./Debug/lcd_lcd_7781.c.o
 .debug_info    0x00017eca      0xacf ./Debug/lcd_lcd_ili6480.c.o
 .debug_info    0x00018999      0xacf ./Debug/lcd_lcd_61505W.c.o
 .debug_info    0x00019468      0xacf ./Debug/lcd_lcd_3029C.c.o
 .debug_info    0x00019f37      0xacf ./Debug/lcd_lcd_9303.c.o
 .debug_info    0x0001aa06      0xacf ./Debug/lcd_lcd_9312.c.o
 .debug_info    0x0001b4d5      0xacf ./Debug/lcd_lcd_ili9225.c.o
 .debug_info    0x0001bfa4      0xaec ./Debug/main_main.c.o
 .debug_info    0x0001ca90     0x2053 ./Debug/menu_menu_display.c.o
 .debug_info    0x0001eae3     0x8250 ./Debug/menu_menu_struct.c.o
 .debug_info    0x00026d33     0x2537 ./Debug/menu_menu_setting.c.o
 .debug_info    0x0002926a     0x15c2 ./Debug/msg_adkey.c.o
 .debug_info    0x0002a82c      0xc20 ./Debug/msg_msg.c.o
 .debug_info    0x0002b44c     0x1890 ./Debug/play_avi_player.c.o
 .debug_info    0x0002ccdc      0xc1e ./Debug/play_gp_fifo.c.o
 .debug_info    0x0002d8fa     0x1023 ./Debug/play_play_picture.c.o
 .debug_info    0x0002e91d     0x19e2 ./Debug/rtc_rtc.c.o
 .debug_info    0x000302ff     0x115b ./Debug/sd_sd_ext.c.o
 .debug_info    0x0003145a      0xc59 ./Debug/sensor_sensor.c.o
 .debug_info    0x000320b3      0xcaf ./Debug/sensor_sensor_gc0308.c.o
 .debug_info    0x00032d62      0xacf ./Debug/sensor_sensor_nt99140.c.o
 .debug_info    0x00033831      0xacf ./Debug/sensor_sensor_ov7670.c.o
 .debug_info    0x00034300      0xacf ./Debug/sensor_sensor_ov9710.c.o
 .debug_info    0x00034dcf      0xacf ./Debug/sensor_sensor_nt99141.c.o
 .debug_info    0x0003589e      0xacf ./Debug/sensor_sensor_bf3925.c.o
 .debug_info    0x0003636d      0xacf ./Debug/sensor_sensor_siv121DS.c.o
 .debug_info    0x00036e3c      0xacf ./Debug/sensor_sensor_ov7725.c.o
 .debug_info    0x0003790b      0xacf ./Debug/sensor_sensor_nt99240.c.o
 .debug_info    0x000383da      0xacf ./Debug/sensor_sensor_siv100B.c.o
 .debug_info    0x00038ea9     0x1693 ./Debug/sys_sys.c.o
 .debug_info    0x0003a53c      0xedb ./Debug/timer_timer.c.o
 .debug_info    0x0003b417     0x106b ./Debug/timer_timer_isr.c.o
 .debug_info    0x0003c482     0x1248 ./Debug/uart_uart.c.o
 .debug_info    0x0003d6ca     0x160b ./Debug/spi_spi.c.o
 .debug_info    0x0003ecd5     0x164e ./Debug/task_task.c.o
 .debug_info    0x00040323     0x195f ./Debug/task_task_video.c.o
 .debug_info    0x00041c82     0x164b ./Debug/task_task_photo.c.o
 .debug_info    0x000432cd     0x159b ./Debug/task_task_play.c.o
 .debug_info    0x00044868     0x1190 ./Debug/task_task_usb_device.c.o
 .debug_info    0x000459f8      0xf07 ./Debug/task_task_holdMode.c.o
 .debug_info    0x000468ff     0x1fc8 ./Debug/tvout_tvout.c.o
 .debug_info    0x000488c7      0xd2a ./Debug/led_led.c.o
 .debug_info    0x000495f1      0xafe ./Debug/g_sensor_g_sensor.c.o
 .debug_info    0x0004a0ef      0xacf ./Debug/g_sensor_g_sensor_dmard07.c.o
 .debug_info    0x0004abbe      0xacf ./Debug/g_sensor_g_sensor_gma301a.c.o
 .debug_info    0x0004b68d      0xb64 ./Debug/g_sensor_g_sensor_null.c.o
 .debug_info    0x0004c1f1       0xb9 d:/MinGW-4.7.1/arm-elf/lib\libc.a(lib_a-strcpy.o)
 .debug_info    0x0004c2aa       0xb1 d:/MinGW-4.7.1/arm-elf/lib\libc.a(lib_a-strlen.o)
 .debug_info    0x0004c35b       0x9e d:/MinGW-4.7.1/lib/gcc/arm-elf/4.6.0\libgcc.a(_udivsi3.o)
 .debug_info    0x0004c3f9       0x9e d:/MinGW-4.7.1/lib/gcc/arm-elf/4.6.0\libgcc.a(_divsi3.o)
 .debug_info    0x0004c497       0x9e d:/MinGW-4.7.1/lib/gcc/arm-elf/4.6.0\libgcc.a(_umodsi3.o)
 .debug_info    0x0004c535       0x9e d:/MinGW-4.7.1/lib/gcc/arm-elf/4.6.0\libgcc.a(_dvmd_tls.o)

.debug_abbrev   0x00000000     0x7aba
 .debug_abbrev  0x00000000      0x249 ./Debug/audio_adc_audio_adc.c.o
 .debug_abbrev  0x00000249      0x362 ./Debug/audio_dac_audio_dac.c.o
 .debug_abbrev  0x000005ab      0x356 ./Debug/common_common.c.o
 .debug_abbrev  0x00000901      0x364 ./Debug/csi_csi.c.o
 .debug_abbrev  0x00000c65      0x163 ./Debug/csi_csi_isr.c.o
 .debug_abbrev  0x00000dc8      0x20d ./Debug/csi_csi_timeinfo.c.o
 .debug_abbrev  0x00000fd5      0x3d4 ./Debug/fat_api_fat_api.c.o
 .debug_abbrev  0x000013a9      0x17f ./Debug/font_font.c.o
 .debug_abbrev  0x00001528      0x23f ./Debug/gpdma_gpdma.c.o
 .debug_abbrev  0x00001767      0x289 ./Debug/i2c_i2c.c.o
 .debug_abbrev  0x000019f0      0x17b ./Debug/int_int.c.o
 .debug_abbrev  0x00001b6b      0x27c ./Debug/lcd_lcdc.c.o
 .debug_abbrev  0x00001de7      0x2ae ./Debug/lcd_osd.c.o
 .debug_abbrev  0x00002095      0x1e0 ./Debug/lcd_lcd_driver.c.o
 .debug_abbrev  0x00002275      0x1bc ./Debug/lcd_lcd_interface.c.o
 .debug_abbrev  0x00002431       0xf1 ./Debug/lcd_lcd_tdo24theb2.c.o
 .debug_abbrev  0x00002522       0xf1 ./Debug/lcd_lcd_ili8961.c.o
 .debug_abbrev  0x00002613      0x22e ./Debug/lcd_lcd_nodisplay.c.o
 .debug_abbrev  0x00002841       0xf1 ./Debug/lcd_lcd_3029.c.o
 .debug_abbrev  0x00002932       0xf1 ./Debug/lcd_lcd_61505.c.o
 .debug_abbrev  0x00002a23       0xf1 ./Debug/lcd_lcd_hx8367.c.o
 .debug_abbrev  0x00002b14       0xf1 ./Debug/lcd_lcd_7781.c.o
 .debug_abbrev  0x00002c05       0xf1 ./Debug/lcd_lcd_ili6480.c.o
 .debug_abbrev  0x00002cf6       0xf1 ./Debug/lcd_lcd_61505W.c.o
 .debug_abbrev  0x00002de7       0xf1 ./Debug/lcd_lcd_3029C.c.o
 .debug_abbrev  0x00002ed8       0xf1 ./Debug/lcd_lcd_9303.c.o
 .debug_abbrev  0x00002fc9       0xf1 ./Debug/lcd_lcd_9312.c.o
 .debug_abbrev  0x000030ba       0xf1 ./Debug/lcd_lcd_ili9225.c.o
 .debug_abbrev  0x000031ab      0x10a ./Debug/main_main.c.o
 .debug_abbrev  0x000032b5      0x418 ./Debug/menu_menu_display.c.o
 .debug_abbrev  0x000036cd      0x186 ./Debug/menu_menu_struct.c.o
 .debug_abbrev  0x00003853      0x4a8 ./Debug/menu_menu_setting.c.o
 .debug_abbrev  0x00003cfb      0x311 ./Debug/msg_adkey.c.o
 .debug_abbrev  0x0000400c      0x192 ./Debug/msg_msg.c.o
 .debug_abbrev  0x0000419e      0x1ad ./Debug/play_avi_player.c.o
 .debug_abbrev  0x0000434b      0x13c ./Debug/play_gp_fifo.c.o
 .debug_abbrev  0x00004487      0x182 ./Debug/play_play_picture.c.o
 .debug_abbrev  0x00004609      0x3bc ./Debug/rtc_rtc.c.o
 .debug_abbrev  0x000049c5      0x23d ./Debug/sd_sd_ext.c.o
 .debug_abbrev  0x00004c02      0x181 ./Debug/sensor_sensor.c.o
 .debug_abbrev  0x00004d83      0x1d5 ./Debug/sensor_sensor_gc0308.c.o
 .debug_abbrev  0x00004f58       0xf1 ./Debug/sensor_sensor_nt99140.c.o
 .debug_abbrev  0x00005049       0xf1 ./Debug/sensor_sensor_ov7670.c.o
 .debug_abbrev  0x0000513a       0xf1 ./Debug/sensor_sensor_ov9710.c.o
 .debug_abbrev  0x0000522b       0xf1 ./Debug/sensor_sensor_nt99141.c.o
 .debug_abbrev  0x0000531c       0xf1 ./Debug/sensor_sensor_bf3925.c.o
 .debug_abbrev  0x0000540d       0xf1 ./Debug/sensor_sensor_siv121DS.c.o
 .debug_abbrev  0x000054fe       0xf1 ./Debug/sensor_sensor_ov7725.c.o
 .debug_abbrev  0x000055ef       0xf1 ./Debug/sensor_sensor_nt99240.c.o
 .debug_abbrev  0x000056e0       0xf1 ./Debug/sensor_sensor_siv100B.c.o
 .debug_abbrev  0x000057d1      0x35b ./Debug/sys_sys.c.o
 .debug_abbrev  0x00005b2c      0x142 ./Debug/timer_timer.c.o
 .debug_abbrev  0x00005c6e      0x171 ./Debug/timer_timer_isr.c.o
 .debug_abbrev  0x00005ddf      0x262 ./Debug/uart_uart.c.o
 .debug_abbrev  0x00006041      0x290 ./Debug/spi_spi.c.o
 .debug_abbrev  0x000062d1      0x230 ./Debug/task_task.c.o
 .debug_abbrev  0x00006501      0x2c2 ./Debug/task_task_video.c.o
 .debug_abbrev  0x000067c3      0x27f ./Debug/task_task_photo.c.o
 .debug_abbrev  0x00006a42      0x285 ./Debug/task_task_play.c.o
 .debug_abbrev  0x00006cc7      0x1af ./Debug/task_task_usb_device.c.o
 .debug_abbrev  0x00006e76      0x1d0 ./Debug/task_task_holdMode.c.o
 .debug_abbrev  0x00007046      0x372 ./Debug/tvout_tvout.c.o
 .debug_abbrev  0x000073b8      0x1b1 ./Debug/led_led.c.o
 .debug_abbrev  0x00007569       0xf1 ./Debug/g_sensor_g_sensor.c.o
 .debug_abbrev  0x0000765a       0xf1 ./Debug/g_sensor_g_sensor_dmard07.c.o
 .debug_abbrev  0x0000774b       0xf1 ./Debug/g_sensor_g_sensor_gma301a.c.o
 .debug_abbrev  0x0000783c      0x152 ./Debug/g_sensor_g_sensor_null.c.o
 .debug_abbrev  0x0000798e       0x6f d:/MinGW-4.7.1/arm-elf/lib\libc.a(lib_a-strcpy.o)
 .debug_abbrev  0x000079fd       0x6d d:/MinGW-4.7.1/arm-elf/lib\libc.a(lib_a-strlen.o)
 .debug_abbrev  0x00007a6a       0x14 d:/MinGW-4.7.1/lib/gcc/arm-elf/4.6.0\libgcc.a(_udivsi3.o)
 .debug_abbrev  0x00007a7e       0x14 d:/MinGW-4.7.1/lib/gcc/arm-elf/4.6.0\libgcc.a(_divsi3.o)
 .debug_abbrev  0x00007a92       0x14 d:/MinGW-4.7.1/lib/gcc/arm-elf/4.6.0\libgcc.a(_umodsi3.o)
 .debug_abbrev  0x00007aa6       0x14 d:/MinGW-4.7.1/lib/gcc/arm-elf/4.6.0\libgcc.a(_dvmd_tls.o)

.debug_loc      0x00000000     0xaeeb
 .debug_loc     0x00000000      0x1ee ./Debug/audio_adc_audio_adc.c.o
 .debug_loc     0x000001ee      0x49b ./Debug/audio_dac_audio_dac.c.o
 .debug_loc     0x00000689      0x707 ./Debug/common_common.c.o
 .debug_loc     0x00000d90      0x49d ./Debug/csi_csi.c.o
 .debug_loc     0x0000122d       0x33 ./Debug/csi_csi_isr.c.o
 .debug_loc     0x00001260      0x349 ./Debug/csi_csi_timeinfo.c.o
 .debug_loc     0x000015a9     0x16c4 ./Debug/fat_api_fat_api.c.o
 .debug_loc     0x00002c6d      0x48f ./Debug/gpdma_gpdma.c.o
 .debug_loc     0x000030fc      0x64d ./Debug/i2c_i2c.c.o
 .debug_loc     0x00003749       0x20 ./Debug/int_int.c.o
 .debug_loc     0x00003769      0xb93 ./Debug/lcd_lcdc.c.o
 .debug_loc     0x000042fc      0x908 ./Debug/lcd_osd.c.o
 .debug_loc     0x00004c04      0x170 ./Debug/lcd_lcd_driver.c.o
 .debug_loc     0x00004d74      0x694 ./Debug/lcd_lcd_interface.c.o
 .debug_loc     0x00005408      0x13c ./Debug/lcd_lcd_nodisplay.c.o
 .debug_loc     0x00005544       0x20 ./Debug/main_main.c.o
 .debug_loc     0x00005564      0xc99 ./Debug/menu_menu_display.c.o
 .debug_loc     0x000061fd      0xf3d ./Debug/menu_menu_setting.c.o
 .debug_loc     0x0000713a      0x3c7 ./Debug/msg_adkey.c.o
 .debug_loc     0x00007501       0x26 ./Debug/msg_msg.c.o
 .debug_loc     0x00007527      0x45a ./Debug/play_avi_player.c.o
 .debug_loc     0x00007981      0x154 ./Debug/play_gp_fifo.c.o
 .debug_loc     0x00007ad5      0x138 ./Debug/play_play_picture.c.o
 .debug_loc     0x00007c0d      0xdeb ./Debug/rtc_rtc.c.o
 .debug_loc     0x000089f8       0xd3 ./Debug/sd_sd_ext.c.o
 .debug_loc     0x00008acb      0x185 ./Debug/sensor_sensor.c.o
 .debug_loc     0x00008c50       0xdc ./Debug/sensor_sensor_gc0308.c.o
 .debug_loc     0x00008d2c      0x3f7 ./Debug/sys_sys.c.o
 .debug_loc     0x00009123       0x40 ./Debug/timer_timer.c.o
 .debug_loc     0x00009163       0x40 ./Debug/timer_timer_isr.c.o
 .debug_loc     0x000091a3      0x7a0 ./Debug/uart_uart.c.o
 .debug_loc     0x00009943      0x449 ./Debug/spi_spi.c.o
 .debug_loc     0x00009d8c      0x163 ./Debug/task_task.c.o
 .debug_loc     0x00009eef      0x3eb ./Debug/task_task_video.c.o
 .debug_loc     0x0000a2da      0x1be ./Debug/task_task_photo.c.o
 .debug_loc     0x0000a498      0x189 ./Debug/task_task_play.c.o
 .debug_loc     0x0000a621       0x84 ./Debug/task_task_usb_device.c.o
 .debug_loc     0x0000a6a5      0x114 ./Debug/task_task_holdMode.c.o
 .debug_loc     0x0000a7b9      0x70c ./Debug/tvout_tvout.c.o
 .debug_loc     0x0000aec5       0x13 d:/MinGW-4.7.1/arm-elf/lib\libc.a(lib_a-strcpy.o)
 .debug_loc     0x0000aed8       0x13 d:/MinGW-4.7.1/arm-elf/lib\libc.a(lib_a-strlen.o)

.debug_aranges  0x00000000      0x5e8
 .debug_aranges
                0x00000000       0x20 ./Debug/audio_adc_audio_adc.c.o
 .debug_aranges
                0x00000020       0x20 ./Debug/audio_dac_audio_dac.c.o
 .debug_aranges
                0x00000040       0x20 ./Debug/common_common.c.o
 .debug_aranges
                0x00000060       0x20 ./Debug/csi_csi.c.o
 .debug_aranges
                0x00000080       0x20 ./Debug/csi_csi_isr.c.o
 .debug_aranges
                0x000000a0       0x20 ./Debug/csi_csi_timeinfo.c.o
 .debug_aranges
                0x000000c0       0x20 ./Debug/fat_api_fat_api.c.o
 .debug_aranges
                0x000000e0       0x20 ./Debug/font_font.c.o
 .debug_aranges
                0x00000100       0x20 ./Debug/gpdma_gpdma.c.o
 .debug_aranges
                0x00000120       0x20 ./Debug/i2c_i2c.c.o
 .debug_aranges
                0x00000140       0x28 ./Debug/int_int.c.o
 .debug_aranges
                0x00000168       0x20 ./Debug/lcd_lcdc.c.o
 .debug_aranges
                0x00000188       0x20 ./Debug/lcd_osd.c.o
 .debug_aranges
                0x000001a8       0x20 ./Debug/lcd_lcd_driver.c.o
 .debug_aranges
                0x000001c8       0x20 ./Debug/lcd_lcd_interface.c.o
 .debug_aranges
                0x000001e8       0x20 ./Debug/lcd_lcd_nodisplay.c.o
 .debug_aranges
                0x00000208       0x20 ./Debug/menu_menu_display.c.o
 .debug_aranges
                0x00000228       0x20 ./Debug/menu_menu_setting.c.o
 .debug_aranges
                0x00000248       0x20 ./Debug/msg_adkey.c.o
 .debug_aranges
                0x00000268       0x20 ./Debug/msg_msg.c.o
 .debug_aranges
                0x00000288       0x20 ./Debug/play_avi_player.c.o
 .debug_aranges
                0x000002a8       0x20 ./Debug/play_gp_fifo.c.o
 .debug_aranges
                0x000002c8       0x20 ./Debug/play_play_picture.c.o
 .debug_aranges
                0x000002e8       0x20 ./Debug/rtc_rtc.c.o
 .debug_aranges
                0x00000308       0x20 ./Debug/sd_sd_ext.c.o
 .debug_aranges
                0x00000328       0x20 ./Debug/sensor_sensor.c.o
 .debug_aranges
                0x00000348       0x20 ./Debug/sensor_sensor_gc0308.c.o
 .debug_aranges
                0x00000368       0x20 ./Debug/sys_sys.c.o
 .debug_aranges
                0x00000388       0x20 ./Debug/timer_timer.c.o
 .debug_aranges
                0x000003a8       0x20 ./Debug/timer_timer_isr.c.o
 .debug_aranges
                0x000003c8       0x20 ./Debug/uart_uart.c.o
 .debug_aranges
                0x000003e8       0x20 ./Debug/spi_spi.c.o
 .debug_aranges
                0x00000408       0x20 ./Debug/task_task.c.o
 .debug_aranges
                0x00000428       0x20 ./Debug/task_task_video.c.o
 .debug_aranges
                0x00000448       0x20 ./Debug/task_task_photo.c.o
 .debug_aranges
                0x00000468       0x20 ./Debug/task_task_play.c.o
 .debug_aranges
                0x00000488       0x20 ./Debug/task_task_usb_device.c.o
 .debug_aranges
                0x000004a8       0x20 ./Debug/task_task_holdMode.c.o
 .debug_aranges
                0x000004c8       0x20 ./Debug/tvout_tvout.c.o
 .debug_aranges
                0x000004e8       0x20 ./Debug/led_led.c.o
 .debug_aranges
                0x00000508       0x20 ./Debug/g_sensor_g_sensor_null.c.o
 .debug_aranges
                0x00000528       0x20 d:/MinGW-4.7.1/arm-elf/lib\libc.a(lib_a-strcpy.o)
 .debug_aranges
                0x00000548       0x20 d:/MinGW-4.7.1/arm-elf/lib\libc.a(lib_a-strlen.o)
 .debug_aranges
                0x00000568       0x20 d:/MinGW-4.7.1/lib/gcc/arm-elf/4.6.0\libgcc.a(_udivsi3.o)
 .debug_aranges
                0x00000588       0x20 d:/MinGW-4.7.1/lib/gcc/arm-elf/4.6.0\libgcc.a(_divsi3.o)
 .debug_aranges
                0x000005a8       0x20 d:/MinGW-4.7.1/lib/gcc/arm-elf/4.6.0\libgcc.a(_umodsi3.o)
 .debug_aranges
                0x000005c8       0x20 d:/MinGW-4.7.1/lib/gcc/arm-elf/4.6.0\libgcc.a(_dvmd_tls.o)

.debug_ranges   0x00000000     0x3160
 .debug_ranges  0x00000000       0x30 ./Debug/audio_adc_audio_adc.c.o
 .debug_ranges  0x00000030       0xf8 ./Debug/audio_dac_audio_dac.c.o
 .debug_ranges  0x00000128       0xa8 ./Debug/common_common.c.o
 .debug_ranges  0x000001d0       0x90 ./Debug/csi_csi.c.o
 .debug_ranges  0x00000260       0x18 ./Debug/csi_csi_isr.c.o
 .debug_ranges  0x00000278       0xe0 ./Debug/csi_csi_timeinfo.c.o
 .debug_ranges  0x00000358      0x3b8 ./Debug/fat_api_fat_api.c.o
 .debug_ranges  0x00000710      0x110 ./Debug/gpdma_gpdma.c.o
 .debug_ranges  0x00000820      0x138 ./Debug/i2c_i2c.c.o
 .debug_ranges  0x00000958       0x18 ./Debug/int_int.c.o
 .debug_ranges  0x00000970      0x1e8 ./Debug/lcd_lcdc.c.o
 .debug_ranges  0x00000b58       0x30 ./Debug/lcd_osd.c.o
 .debug_ranges  0x00000b88       0x10 ./Debug/main_main.c.o
 .debug_ranges  0x00000b98      0x518 ./Debug/menu_menu_display.c.o
 .debug_ranges  0x000010b0      0x490 ./Debug/menu_menu_setting.c.o
 .debug_ranges  0x00001540       0xe0 ./Debug/msg_adkey.c.o
 .debug_ranges  0x00001620       0x40 ./Debug/play_avi_player.c.o
 .debug_ranges  0x00001660       0x38 ./Debug/play_play_picture.c.o
 .debug_ranges  0x00001698      0xa38 ./Debug/rtc_rtc.c.o
 .debug_ranges  0x000020d0       0x30 ./Debug/sd_sd_ext.c.o
 .debug_ranges  0x00002100       0x30 ./Debug/sensor_sensor_gc0308.c.o
 .debug_ranges  0x00002130       0x30 ./Debug/sys_sys.c.o
 .debug_ranges  0x00002160      0x4b8 ./Debug/uart_uart.c.o
 .debug_ranges  0x00002618      0x760 ./Debug/spi_spi.c.o
 .debug_ranges  0x00002d78      0x100 ./Debug/task_task_video.c.o
 .debug_ranges  0x00002e78       0xd8 ./Debug/task_task_photo.c.o
 .debug_ranges  0x00002f50       0x30 ./Debug/task_task_play.c.o
 .debug_ranges  0x00002f80       0x18 ./Debug/task_task_usb_device.c.o
 .debug_ranges  0x00002f98      0x168 ./Debug/tvout_tvout.c.o
 .debug_ranges  0x00003100       0x60 ./Debug/led_led.c.o

.debug_line     0x00000000    0x138a4
 .debug_line    0x00000000      0x59e ./Debug/audio_adc_audio_adc.c.o
 .debug_line    0x0000059e      0x722 ./Debug/audio_dac_audio_dac.c.o
 .debug_line    0x00000cc0      0x500 ./Debug/common_common.c.o
 .debug_line    0x000011c0      0x742 ./Debug/csi_csi.c.o
 .debug_line    0x00001902      0x432 ./Debug/csi_csi_isr.c.o
 .debug_line    0x00001d34      0x446 ./Debug/csi_csi_timeinfo.c.o
 .debug_line    0x0000217a      0xcdf ./Debug/fat_api_fat_api.c.o
 .debug_line    0x00002e59      0x3cb ./Debug/font_font.c.o
 .debug_line    0x00003224      0x44b ./Debug/gpdma_gpdma.c.o
 .debug_line    0x0000366f      0x868 ./Debug/i2c_i2c.c.o
 .debug_line    0x00003ed7      0x384 ./Debug/int_int.c.o
 .debug_line    0x0000425b      0x60b ./Debug/lcd_lcdc.c.o
 .debug_line    0x00004866      0x5dc ./Debug/lcd_osd.c.o
 .debug_line    0x00004e42      0x505 ./Debug/lcd_lcd_driver.c.o
 .debug_line    0x00005347      0x4c8 ./Debug/lcd_lcd_interface.c.o
 .debug_line    0x0000580f      0x2ac ./Debug/lcd_lcd_tdo24theb2.c.o
 .debug_line    0x00005abb      0x2ac ./Debug/lcd_lcd_ili8961.c.o
 .debug_line    0x00005d67      0x411 ./Debug/lcd_lcd_nodisplay.c.o
 .debug_line    0x00006178      0x2ac ./Debug/lcd_lcd_3029.c.o
 .debug_line    0x00006424      0x2ac ./Debug/lcd_lcd_61505.c.o
 .debug_line    0x000066d0      0x2ac ./Debug/lcd_lcd_hx8367.c.o
 .debug_line    0x0000697c      0x2ac ./Debug/lcd_lcd_7781.c.o
 .debug_line    0x00006c28      0x2ac ./Debug/lcd_lcd_ili6480.c.o
 .debug_line    0x00006ed4      0x2ac ./Debug/lcd_lcd_61505W.c.o
 .debug_line    0x00007180      0x2ac ./Debug/lcd_lcd_3029C.c.o
 .debug_line    0x0000742c      0x2ac ./Debug/lcd_lcd_9303.c.o
 .debug_line    0x000076d8      0x2ac ./Debug/lcd_lcd_9312.c.o
 .debug_line    0x00007984      0x2ac ./Debug/lcd_lcd_ili9225.c.o
 .debug_line    0x00007c30      0x309 ./Debug/main_main.c.o
 .debug_line    0x00007f39      0x7ea ./Debug/menu_menu_display.c.o
 .debug_line    0x00008723      0x308 ./Debug/menu_menu_struct.c.o
 .debug_line    0x00008a2b      0xcf5 ./Debug/menu_menu_setting.c.o
 .debug_line    0x00009720      0x618 ./Debug/msg_adkey.c.o
 .debug_line    0x00009d38      0x321 ./Debug/msg_msg.c.o
 .debug_line    0x0000a059      0x6a9 ./Debug/play_avi_player.c.o
 .debug_line    0x0000a702      0x346 ./Debug/play_gp_fifo.c.o
 .debug_line    0x0000aa48      0x411 ./Debug/play_play_picture.c.o
 .debug_line    0x0000ae59      0x7f4 ./Debug/rtc_rtc.c.o
 .debug_line    0x0000b64d      0x532 ./Debug/sd_sd_ext.c.o
 .debug_line    0x0000bb7f      0x474 ./Debug/sensor_sensor.c.o
 .debug_line    0x0000bff3      0x403 ./Debug/sensor_sensor_gc0308.c.o
 .debug_line    0x0000c3f6      0x2c1 ./Debug/sensor_sensor_nt99140.c.o
 .debug_line    0x0000c6b7      0x2c1 ./Debug/sensor_sensor_ov7670.c.o
 .debug_line    0x0000c978      0x2c1 ./Debug/sensor_sensor_ov9710.c.o
 .debug_line    0x0000cc39      0x2c1 ./Debug/sensor_sensor_nt99141.c.o
 .debug_line    0x0000cefa      0x2c1 ./Debug/sensor_sensor_bf3925.c.o
 .debug_line    0x0000d1bb      0x2c1 ./Debug/sensor_sensor_siv121DS.c.o
 .debug_line    0x0000d47c      0x2c1 ./Debug/sensor_sensor_ov7725.c.o
 .debug_line    0x0000d73d      0x2c1 ./Debug/sensor_sensor_nt99240.c.o
 .debug_line    0x0000d9fe      0x2c1 ./Debug/sensor_sensor_siv100B.c.o
 .debug_line    0x0000dcbf      0x849 ./Debug/sys_sys.c.o
 .debug_line    0x0000e508      0x3f9 ./Debug/timer_timer.c.o
 .debug_line    0x0000e901      0x432 ./Debug/timer_timer_isr.c.o
 .debug_line    0x0000ed33      0x6ae ./Debug/uart_uart.c.o
 .debug_line    0x0000f3e1      0x5bf ./Debug/spi_spi.c.o
 .debug_line    0x0000f9a0      0x5ad ./Debug/task_task.c.o
 .debug_line    0x0000ff4d      0x7d1 ./Debug/task_task_video.c.o
 .debug_line    0x0001071e      0x665 ./Debug/task_task_photo.c.o
 .debug_line    0x00010d83      0x60c ./Debug/task_task_play.c.o
 .debug_line    0x0001138f      0x492 ./Debug/task_task_usb_device.c.o
 .debug_line    0x00011821      0x536 ./Debug/task_task_holdMode.c.o
 .debug_line    0x00011d57      0x7bf ./Debug/tvout_tvout.c.o
 .debug_line    0x00012516      0x368 ./Debug/led_led.c.o
 .debug_line    0x0001287e      0x314 ./Debug/g_sensor_g_sensor.c.o
 .debug_line    0x00012b92      0x2cf ./Debug/g_sensor_g_sensor_dmard07.c.o
 .debug_line    0x00012e61      0x2cf ./Debug/g_sensor_g_sensor_gma301a.c.o
 .debug_line    0x00013130      0x32f ./Debug/g_sensor_g_sensor_null.c.o
 .debug_line    0x0001345f       0xcb d:/MinGW-4.7.1/arm-elf/lib\libc.a(lib_a-strcpy.o)
 .debug_line    0x0001352a      0x11d d:/MinGW-4.7.1/arm-elf/lib\libc.a(lib_a-strlen.o)
 .debug_line    0x00013647       0xa6 d:/MinGW-4.7.1/lib/gcc/arm-elf/4.6.0\libgcc.a(_udivsi3.o)
 .debug_line    0x000136ed       0xb2 d:/MinGW-4.7.1/lib/gcc/arm-elf/4.6.0\libgcc.a(_divsi3.o)
 .debug_line    0x0001379f       0x8d d:/MinGW-4.7.1/lib/gcc/arm-elf/4.6.0\libgcc.a(_umodsi3.o)
 .debug_line    0x0001382c       0x78 d:/MinGW-4.7.1/lib/gcc/arm-elf/4.6.0\libgcc.a(_dvmd_tls.o)

.debug_str      0x00000000     0x85c2
 .debug_str     0x00000000      0xac3 ./Debug/audio_adc_audio_adc.c.o
                                0xba2 (size before relaxing)
 .debug_str     0x00000ac3      0x281 ./Debug/audio_dac_audio_dac.c.o
                                0x9ce (size before relaxing)
 .debug_str     0x00000d44      0x211 ./Debug/common_common.c.o
                                0x84e (size before relaxing)
 .debug_str     0x00000f55      0x465 ./Debug/csi_csi.c.o
                                0xc98 (size before relaxing)
 .debug_str     0x000013ba       0x8a ./Debug/csi_csi_isr.c.o
                                0x790 (size before relaxing)
 .debug_str     0x00001444      0x1bd ./Debug/csi_csi_timeinfo.c.o
                                0xa4b (size before relaxing)
 .debug_str     0x00001601      0xa34 ./Debug/fat_api_fat_api.c.o
                               0x15c4 (size before relaxing)
 .debug_str     0x00002035      0x21a ./Debug/font_font.c.o
                                0x85a (size before relaxing)
 .debug_str     0x0000224f      0x263 ./Debug/gpdma_gpdma.c.o
                                0x8a8 (size before relaxing)
 .debug_str     0x000024b2      0x14f ./Debug/i2c_i2c.c.o
                                0x761 (size before relaxing)
 .debug_str     0x00002601       0x95 ./Debug/int_int.c.o
                                0x789 (size before relaxing)
 .debug_str     0x00002696      0x309 ./Debug/lcd_lcdc.c.o
                                0x92f (size before relaxing)
 .debug_str     0x0000299f      0x1f9 ./Debug/lcd_osd.c.o
                                0x892 (size before relaxing)
 .debug_str     0x00002b98      0x36f ./Debug/lcd_lcd_driver.c.o
                                0x9a7 (size before relaxing)
 .debug_str     0x00002f07      0x1f6 ./Debug/lcd_lcd_interface.c.o
                                0xa34 (size before relaxing)
 .debug_str     0x000030fd       0x43 ./Debug/lcd_lcd_tdo24theb2.c.o
                                0x650 (size before relaxing)
 .debug_str     0x00003140       0x40 ./Debug/lcd_lcd_ili8961.c.o
                                0x64d (size before relaxing)
 .debug_str     0x00003180       0xd5 ./Debug/lcd_lcd_nodisplay.c.o
                                0xa13 (size before relaxing)
 .debug_str     0x00003255       0x3d ./Debug/lcd_lcd_3029.c.o
                                0x64a (size before relaxing)
 .debug_str     0x00003292       0x3e ./Debug/lcd_lcd_61505.c.o
                                0x64b (size before relaxing)
 .debug_str     0x000032d0       0x3f ./Debug/lcd_lcd_hx8367.c.o
                                0x64c (size before relaxing)
 .debug_str     0x0000330f       0x3d ./Debug/lcd_lcd_7781.c.o
                                0x64a (size before relaxing)
 .debug_str     0x0000334c       0x40 ./Debug/lcd_lcd_ili6480.c.o
                                0x64d (size before relaxing)
 .debug_str     0x0000338c       0x3f ./Debug/lcd_lcd_61505W.c.o
                                0x64c (size before relaxing)
 .debug_str     0x000033cb       0x3e ./Debug/lcd_lcd_3029C.c.o
                                0x64b (size before relaxing)
 .debug_str     0x00003409       0x3d ./Debug/lcd_lcd_9303.c.o
                                0x64a (size before relaxing)
 .debug_str     0x00003446       0x3d ./Debug/lcd_lcd_9312.c.o
                                0x64a (size before relaxing)
 .debug_str     0x00003483       0x40 ./Debug/lcd_lcd_ili9225.c.o
                                0x64d (size before relaxing)
 .debug_str     0x000034c3       0x3a ./Debug/main_main.c.o
                                0x64c (size before relaxing)
 .debug_str     0x000034fd      0x63c ./Debug/menu_menu_display.c.o
                                0xec5 (size before relaxing)
 .debug_str     0x00003b39     0x24fb ./Debug/menu_menu_struct.c.o
                               0x318a (size before relaxing)
 .debug_str     0x00006034      0x56e ./Debug/menu_menu_setting.c.o
                               0x1336 (size before relaxing)
 .debug_str     0x000065a2      0x190 ./Debug/msg_adkey.c.o
                                0xe3e (size before relaxing)
 .debug_str     0x00006732       0x89 ./Debug/msg_msg.c.o
                                0x696 (size before relaxing)
 .debug_str     0x000067bb      0x338 ./Debug/play_avi_player.c.o
                               0x10fa (size before relaxing)
 .debug_str     0x00006af3       0x63 ./Debug/play_gp_fifo.c.o
                                0x6ca (size before relaxing)
 .debug_str     0x00006b56       0x69 ./Debug/play_play_picture.c.o
                                0x9d7 (size before relaxing)
 .debug_str     0x00006bbf      0x192 ./Debug/rtc_rtc.c.o
                                0x9c6 (size before relaxing)
 .debug_str     0x00006d51      0x19b ./Debug/sd_sd_ext.c.o
                                0xc53 (size before relaxing)
 .debug_str     0x00006eec      0x113 ./Debug/sensor_sensor.c.o
                                0x733 (size before relaxing)
 .debug_str     0x00006fff       0xa1 ./Debug/sensor_sensor_gc0308.c.o
                                0x6ec (size before relaxing)
 .debug_str     0x000070a0       0x46 ./Debug/sensor_sensor_nt99140.c.o
                                0x653 (size before relaxing)
 .debug_str     0x000070e6       0x45 ./Debug/sensor_sensor_ov7670.c.o
                                0x652 (size before relaxing)
 .debug_str     0x0000712b       0x45 ./Debug/sensor_sensor_ov9710.c.o
                                0x652 (size before relaxing)
 .debug_str     0x00007170       0x46 ./Debug/sensor_sensor_nt99141.c.o
                                0x653 (size before relaxing)
 .debug_str     0x000071b6       0x45 ./Debug/sensor_sensor_bf3925.c.o
                                0x652 (size before relaxing)
 .debug_str     0x000071fb       0x47 ./Debug/sensor_sensor_siv121DS.c.o
                                0x654 (size before relaxing)
 .debug_str     0x00007242       0x45 ./Debug/sensor_sensor_ov7725.c.o
                                0x652 (size before relaxing)
 .debug_str     0x00007287       0x46 ./Debug/sensor_sensor_nt99240.c.o
                                0x653 (size before relaxing)
 .debug_str     0x000072cd       0x46 ./Debug/sensor_sensor_siv100B.c.o
                                0x653 (size before relaxing)
 .debug_str     0x00007313      0x25f ./Debug/sys_sys.c.o
                                0xf2a (size before relaxing)
 .debug_str     0x00007572       0xec ./Debug/timer_timer.c.o
                                0xa7e (size before relaxing)
 .debug_str     0x0000765e       0x86 ./Debug/timer_timer_isr.c.o
                                0xc37 (size before relaxing)
 .debug_str     0x000076e4      0x121 ./Debug/uart_uart.c.o
                                0x769 (size before relaxing)
 .debug_str     0x00007805      0x188 ./Debug/spi_spi.c.o
                                0x7a7 (size before relaxing)
 .debug_str     0x0000798d      0x106 ./Debug/task_task.c.o
                               0x100b (size before relaxing)
 .debug_str     0x00007a93      0x28c ./Debug/task_task_video.c.o
                               0x1214 (size before relaxing)
 .debug_str     0x00007d1f       0xfa ./Debug/task_task_photo.c.o
                               0x1011 (size before relaxing)
 .debug_str     0x00007e19      0x12f ./Debug/task_task_play.c.o
                                0xf43 (size before relaxing)
 .debug_str     0x00007f48       0x76 ./Debug/task_task_usb_device.c.o
                                0xd14 (size before relaxing)
 .debug_str     0x00007fbe       0x94 ./Debug/task_task_holdMode.c.o
                                0xa42 (size before relaxing)
 .debug_str     0x00008052      0x1f2 ./Debug/tvout_tvout.c.o
                                0x9dc (size before relaxing)
 .debug_str     0x00008244      0x104 ./Debug/led_led.c.o
                                0x86a (size before relaxing)
 .debug_str     0x00008348       0x4d ./Debug/g_sensor_g_sensor.c.o
                                0x66d (size before relaxing)
 .debug_str     0x00008395       0x4a ./Debug/g_sensor_g_sensor_dmard07.c.o
                                0x657 (size before relaxing)
 .debug_str     0x000083df       0x4a ./Debug/g_sensor_g_sensor_gma301a.c.o
                                0x657 (size before relaxing)
 .debug_str     0x00008429       0xb0 ./Debug/g_sensor_g_sensor_null.c.o
                                0x6dd (size before relaxing)
 .debug_str     0x000084d9       0x93 d:/MinGW-4.7.1/arm-elf/lib\libc.a(lib_a-strcpy.o)
                                0x12f (size before relaxing)
 .debug_str     0x0000856c       0x56 d:/MinGW-4.7.1/arm-elf/lib\libc.a(lib_a-strlen.o)
                                0x136 (size before relaxing)

.comment        0x00000000       0x11
 .comment       0x00000000       0x11 ./Debug/audio_adc_audio_adc.c.o
                                 0x12 (size before relaxing)
 .comment       0x00000000       0x12 ./Debug/audio_dac_audio_dac.c.o
 .comment       0x00000000       0x12 ./Debug/common_common.c.o
 .comment       0x00000000       0x12 ./Debug/csi_csi.c.o
 .comment       0x00000000       0x12 ./Debug/csi_csi_isr.c.o
 .comment       0x00000000       0x12 ./Debug/csi_csi_timeinfo.c.o
 .comment       0x00000000       0x12 ./Debug/fat_api_fat_api.c.o
 .comment       0x00000000       0x12 ./Debug/font_font.c.o
 .comment       0x00000000       0x12 ./Debug/gpdma_gpdma.c.o
 .comment       0x00000000       0x12 ./Debug/i2c_i2c.c.o
 .comment       0x00000000       0x12 ./Debug/int_int.c.o
 .comment       0x00000000       0x12 ./Debug/lcd_lcdc.c.o
 .comment       0x00000000       0x12 ./Debug/lcd_osd.c.o
 .comment       0x00000000       0x12 ./Debug/lcd_lcd_driver.c.o
 .comment       0x00000000       0x12 ./Debug/lcd_lcd_interface.c.o
 .comment       0x00000000       0x12 ./Debug/lcd_lcd_tdo24theb2.c.o
 .comment       0x00000000       0x12 ./Debug/lcd_lcd_ili8961.c.o
 .comment       0x00000000       0x12 ./Debug/lcd_lcd_nodisplay.c.o
 .comment       0x00000000       0x12 ./Debug/lcd_lcd_3029.c.o
 .comment       0x00000000       0x12 ./Debug/lcd_lcd_61505.c.o
 .comment       0x00000000       0x12 ./Debug/lcd_lcd_hx8367.c.o
 .comment       0x00000000       0x12 ./Debug/lcd_lcd_7781.c.o
 .comment       0x00000000       0x12 ./Debug/lcd_lcd_ili6480.c.o
 .comment       0x00000000       0x12 ./Debug/lcd_lcd_61505W.c.o
 .comment       0x00000000       0x12 ./Debug/lcd_lcd_3029C.c.o
 .comment       0x00000000       0x12 ./Debug/lcd_lcd_9303.c.o
 .comment       0x00000000       0x12 ./Debug/lcd_lcd_9312.c.o
 .comment       0x00000000       0x12 ./Debug/lcd_lcd_ili9225.c.o
 .comment       0x00000000       0x12 ./Debug/main_main.c.o
 .comment       0x00000000       0x12 ./Debug/menu_menu_display.c.o
 .comment       0x00000000       0x12 ./Debug/menu_menu_struct.c.o
 .comment       0x00000000       0x12 ./Debug/menu_menu_setting.c.o
 .comment       0x00000000       0x12 ./Debug/msg_adkey.c.o
 .comment       0x00000000       0x12 ./Debug/msg_msg.c.o
 .comment       0x00000000       0x12 ./Debug/play_avi_player.c.o
 .comment       0x00000000       0x12 ./Debug/play_gp_fifo.c.o
 .comment       0x00000000       0x12 ./Debug/play_play_picture.c.o
 .comment       0x00000000       0x12 ./Debug/rtc_rtc.c.o
 .comment       0x00000000       0x12 ./Debug/sd_sd_ext.c.o
 .comment       0x00000000       0x12 ./Debug/sensor_sensor.c.o
 .comment       0x00000000       0x12 ./Debug/sensor_sensor_gc0308.c.o
 .comment       0x00000000       0x12 ./Debug/sensor_sensor_nt99140.c.o
 .comment       0x00000000       0x12 ./Debug/sensor_sensor_ov7670.c.o
 .comment       0x00000000       0x12 ./Debug/sensor_sensor_ov9710.c.o
 .comment       0x00000000       0x12 ./Debug/sensor_sensor_nt99141.c.o
 .comment       0x00000000       0x12 ./Debug/sensor_sensor_bf3925.c.o
 .comment       0x00000000       0x12 ./Debug/sensor_sensor_siv121DS.c.o
 .comment       0x00000000       0x12 ./Debug/sensor_sensor_ov7725.c.o
 .comment       0x00000000       0x12 ./Debug/sensor_sensor_nt99240.c.o
 .comment       0x00000000       0x12 ./Debug/sensor_sensor_siv100B.c.o
 .comment       0x00000000       0x12 ./Debug/sys_sys.c.o
 .comment       0x00000000       0x12 ./Debug/timer_timer.c.o
 .comment       0x00000000       0x12 ./Debug/timer_timer_isr.c.o
 .comment       0x00000000       0x12 ./Debug/uart_uart.c.o
 .comment       0x00000000       0x12 ./Debug/spi_spi.c.o
 .comment       0x00000000       0x12 ./Debug/task_task.c.o
 .comment       0x00000000       0x12 ./Debug/task_task_video.c.o
 .comment       0x00000000       0x12 ./Debug/task_task_photo.c.o
 .comment       0x00000000       0x12 ./Debug/task_task_play.c.o
 .comment       0x00000000       0x12 ./Debug/task_task_usb_device.c.o
 .comment       0x00000000       0x12 ./Debug/task_task_holdMode.c.o
 .comment       0x00000000       0x12 ./Debug/tvout_tvout.c.o
 .comment       0x00000000       0x12 ./Debug/led_led.c.o
 .comment       0x00000000       0x12 ./Debug/g_sensor_g_sensor.c.o
 .comment       0x00000000       0x12 ./Debug/g_sensor_g_sensor_dmard07.c.o
 .comment       0x00000000       0x12 ./Debug/g_sensor_g_sensor_gma301a.c.o
 .comment       0x00000000       0x12 ./Debug/g_sensor_g_sensor_null.c.o
 .comment       0x00000000       0x12 d:/MinGW-4.7.1/arm-elf/lib\libc.a(lib_a-strcpy.o)
 .comment       0x00000000       0x12 d:/MinGW-4.7.1/arm-elf/lib\libc.a(lib_a-strlen.o)
 .comment       0x00000000       0x12 libs\libjpeg.a(jpeg_enc.o)
 .comment       0x00000000       0x12 libs\libjpeg.a(jpeg_isr.o)
 .comment       0x00000000       0x12 libs\libjpeg.a(jpeg_dec.o)
 .comment       0x00000000       0x12 libs\libjpeg.a(jpeg_linebuffer.o)
 .comment       0x00000000       0x12 libs\libfs.a(fat_format.o)
 .comment       0x00000000       0x12 libs\libfs.a(ff.o)
 .comment       0x00000000       0x12 libs\libfs.a(diskio.o)
 .comment       0x00000000       0x12 libs\libusb.a(usb_device_mass.o)
 .comment       0x00000000       0x12 libs\libusb.a(usb_dev_audio.o)
 .comment       0x00000000       0x12 libs\libusb.a(usb_device_enum.o)
 .comment       0x00000000       0x12 libs\libusb.a(usb.o)
 .comment       0x00000000       0x12 libs\libusb.a(usb_device_video.o)
 .comment       0x00000000       0x12 libs\libstartup.a(cpu.o)
 .comment       0x00000000       0x12 libs\libstartup.a(lowPower.o)
 .comment       0x00000000       0x12 libs\libfat.a(fat.o)
 .comment       0x00000000       0x12 libs\libfat.a(fat_fileorder.o)
 .comment       0x00000000       0x12 libs\libsd.a(sd.o)

.ARM.attributes
                0x00000000       0x10
 .ARM.attributes
                0x00000000       0x10 ./Debug/audio_adc_audio_adc.c.o
 .ARM.attributes
                0x00000010       0x10 ./Debug/audio_dac_audio_dac.c.o
 .ARM.attributes
                0x00000020       0x10 ./Debug/common_common.c.o
 .ARM.attributes
                0x00000030       0x10 ./Debug/csi_csi.c.o
 .ARM.attributes
                0x00000040       0x10 ./Debug/csi_csi_isr.c.o
 .ARM.attributes
                0x00000050       0x10 ./Debug/csi_csi_timeinfo.c.o
 .ARM.attributes
                0x00000060       0x10 ./Debug/fat_api_fat_api.c.o
 .ARM.attributes
                0x00000070       0x10 ./Debug/font_font.c.o
 .ARM.attributes
                0x00000080       0x10 ./Debug/gpdma_gpdma.c.o
 .ARM.attributes
                0x00000090       0x10 ./Debug/i2c_i2c.c.o
 .ARM.attributes
                0x000000a0       0x10 ./Debug/int_int.c.o
 .ARM.attributes
                0x000000b0       0x10 ./Debug/lcd_lcdc.c.o
 .ARM.attributes
                0x000000c0       0x10 ./Debug/lcd_osd.c.o
 .ARM.attributes
                0x000000d0       0x10 ./Debug/lcd_lcd_driver.c.o
 .ARM.attributes
                0x000000e0       0x10 ./Debug/lcd_lcd_interface.c.o
 .ARM.attributes
                0x000000f0       0x10 ./Debug/lcd_lcd_tdo24theb2.c.o
 .ARM.attributes
                0x00000100       0x10 ./Debug/lcd_lcd_ili8961.c.o
 .ARM.attributes
                0x00000110       0x10 ./Debug/lcd_lcd_nodisplay.c.o
 .ARM.attributes
                0x00000120       0x10 ./Debug/lcd_lcd_3029.c.o
 .ARM.attributes
                0x00000130       0x10 ./Debug/lcd_lcd_61505.c.o
 .ARM.attributes
                0x00000140       0x10 ./Debug/lcd_lcd_hx8367.c.o
 .ARM.attributes
                0x00000150       0x10 ./Debug/lcd_lcd_7781.c.o
 .ARM.attributes
                0x00000160       0x10 ./Debug/lcd_lcd_ili6480.c.o
 .ARM.attributes
                0x00000170       0x10 ./Debug/lcd_lcd_61505W.c.o
 .ARM.attributes
                0x00000180       0x10 ./Debug/lcd_lcd_3029C.c.o
 .ARM.attributes
                0x00000190       0x10 ./Debug/lcd_lcd_9303.c.o
 .ARM.attributes
                0x000001a0       0x10 ./Debug/lcd_lcd_9312.c.o
 .ARM.attributes
                0x000001b0       0x10 ./Debug/lcd_lcd_ili9225.c.o
 .ARM.attributes
                0x000001c0       0x10 ./Debug/main_main.c.o
 .ARM.attributes
                0x000001d0       0x10 ./Debug/menu_menu_display.c.o
 .ARM.attributes
                0x000001e0       0x10 ./Debug/menu_menu_struct.c.o
 .ARM.attributes
                0x000001f0       0x10 ./Debug/menu_menu_setting.c.o
 .ARM.attributes
                0x00000200       0x10 ./Debug/msg_adkey.c.o
 .ARM.attributes
                0x00000210       0x10 ./Debug/msg_msg.c.o
 .ARM.attributes
                0x00000220       0x10 ./Debug/play_avi_player.c.o
 .ARM.attributes
                0x00000230       0x10 ./Debug/play_gp_fifo.c.o
 .ARM.attributes
                0x00000240       0x10 ./Debug/play_play_picture.c.o
 .ARM.attributes
                0x00000250       0x10 ./Debug/rtc_rtc.c.o
 .ARM.attributes
                0x00000260       0x10 ./Debug/sd_sd_ext.c.o
 .ARM.attributes
                0x00000270       0x10 ./Debug/sensor_sensor.c.o
 .ARM.attributes
                0x00000280       0x10 ./Debug/sensor_sensor_gc0308.c.o
 .ARM.attributes
                0x00000290       0x10 ./Debug/sensor_sensor_nt99140.c.o
 .ARM.attributes
                0x000002a0       0x10 ./Debug/sensor_sensor_ov7670.c.o
 .ARM.attributes
                0x000002b0       0x10 ./Debug/sensor_sensor_ov9710.c.o
 .ARM.attributes
                0x000002c0       0x10 ./Debug/sensor_sensor_nt99141.c.o
 .ARM.attributes
                0x000002d0       0x10 ./Debug/sensor_sensor_bf3925.c.o
 .ARM.attributes
                0x000002e0       0x10 ./Debug/sensor_sensor_siv121DS.c.o
 .ARM.attributes
                0x000002f0       0x10 ./Debug/sensor_sensor_ov7725.c.o
 .ARM.attributes
                0x00000300       0x10 ./Debug/sensor_sensor_nt99240.c.o
 .ARM.attributes
                0x00000310       0x10 ./Debug/sensor_sensor_siv100B.c.o
 .ARM.attributes
                0x00000320       0x10 ./Debug/startup_spi_boot_cfg.S.o
 .ARM.attributes
                0x00000330       0x10 ./Debug/sys_sys.c.o
 .ARM.attributes
                0x00000340       0x10 ./Debug/timer_timer.c.o
 .ARM.attributes
                0x00000350       0x10 ./Debug/timer_timer_isr.c.o
 .ARM.attributes
                0x00000360       0x10 ./Debug/uart_uart.c.o
 .ARM.attributes
                0x00000370       0x10 ./Debug/spi_spi.c.o
 .ARM.attributes
                0x00000380       0x10 ./Debug/task_task.c.o
 .ARM.attributes
                0x00000390       0x10 ./Debug/task_task_video.c.o
 .ARM.attributes
                0x000003a0       0x10 ./Debug/task_task_photo.c.o
 .ARM.attributes
                0x000003b0       0x10 ./Debug/task_task_play.c.o
 .ARM.attributes
                0x000003c0       0x10 ./Debug/task_task_usb_device.c.o
 .ARM.attributes
                0x000003d0       0x10 ./Debug/task_task_holdMode.c.o
 .ARM.attributes
                0x000003e0       0x10 ./Debug/tvout_tvout.c.o
 .ARM.attributes
                0x000003f0       0x10 ./Debug/led_led.c.o
 .ARM.attributes
                0x00000400       0x10 ./Debug/g_sensor_g_sensor.c.o
 .ARM.attributes
                0x00000410       0x10 ./Debug/g_sensor_g_sensor_dmard07.c.o
 .ARM.attributes
                0x00000420       0x10 ./Debug/g_sensor_g_sensor_gma301a.c.o
 .ARM.attributes
                0x00000430       0x10 ./Debug/g_sensor_g_sensor_null.c.o
 .ARM.attributes
                0x00000440       0x10 d:/MinGW-4.7.1/arm-elf/lib\libc.a(lib_a-strcpy.o)
 .ARM.attributes
                0x00000450       0x10 d:/MinGW-4.7.1/arm-elf/lib\libc.a(lib_a-strlen.o)
 .ARM.attributes
                0x00000460       0x10 d:/MinGW-4.7.1/lib/gcc/arm-elf/4.6.0\libgcc.a(_udivsi3.o)
 .ARM.attributes
                0x00000470       0x10 d:/MinGW-4.7.1/lib/gcc/arm-elf/4.6.0\libgcc.a(_divsi3.o)
 .ARM.attributes
                0x00000480       0x10 d:/MinGW-4.7.1/lib/gcc/arm-elf/4.6.0\libgcc.a(_umodsi3.o)
 .ARM.attributes
                0x00000490       0x10 d:/MinGW-4.7.1/lib/gcc/arm-elf/4.6.0\libgcc.a(_dvmd_tls.o)
 .ARM.attributes
                0x000004a0       0x10 libs\libjpeg.a(jpeg_enc.o)
 .ARM.attributes
                0x000004b0       0x10 libs\libjpeg.a(jpeg_isr.o)
 .ARM.attributes
                0x000004c0       0x10 libs\libjpeg.a(jpeg_dec.o)
 .ARM.attributes
                0x000004d0       0x10 libs\libjpeg.a(jpeg_linebuffer.o)
 .ARM.attributes
                0x000004e0       0x10 libs\libfs.a(fat_format.o)
 .ARM.attributes
                0x000004f0       0x10 libs\libfs.a(ff.o)
 .ARM.attributes
                0x00000500       0x10 libs\libfs.a(diskio.o)
 .ARM.attributes
                0x00000510       0x10 libs\libusb.a(usb_device_mass.o)
 .ARM.attributes
                0x00000520       0x10 libs\libusb.a(usb_dev_audio.o)
 .ARM.attributes
                0x00000530       0x10 libs\libusb.a(usb_device_enum.o)
 .ARM.attributes
                0x00000540       0x10 libs\libusb.a(usb.o)
 .ARM.attributes
                0x00000550       0x10 libs\libusb.a(usb_device_video.o)
 .ARM.attributes
                0x00000560       0x10 libs\libusb.a(update.o)
 .ARM.attributes
                0x00000570       0x10 libs\libstartup.a(cpu.o)
 .ARM.attributes
                0x00000580       0x10 libs\libstartup.a(lowPower.o)
 .ARM.attributes
                0x00000590       0x10 libs\libstartup.a(startup.o)
 .ARM.attributes
                0x000005a0       0x10 libs\libstartup.a(BootSec.o)
 .ARM.attributes
                0x000005b0       0x10 libs\libfat.a(fat.o)
 .ARM.attributes
                0x000005c0       0x10 libs\libfat.a(fat_fileorder.o)
 .ARM.attributes
                0x000005d0       0x10 libs\libsd.a(sd.o)

.debug_frame    0x00000000     0x2f68
 .debug_frame   0x00000000      0x11c ./Debug/audio_adc_audio_adc.c.o
 .debug_frame   0x0000011c      0x180 ./Debug/audio_dac_audio_dac.c.o
 .debug_frame   0x0000029c      0x1dc ./Debug/common_common.c.o
 .debug_frame   0x00000478      0x1d0 ./Debug/csi_csi.c.o
 .debug_frame   0x00000648       0x2c ./Debug/csi_csi_isr.c.o
 .debug_frame   0x00000674       0x94 ./Debug/csi_csi_timeinfo.c.o
 .debug_frame   0x00000708      0x2f8 ./Debug/fat_api_fat_api.c.o
 .debug_frame   0x00000a00       0xa0 ./Debug/font_font.c.o
 .debug_frame   0x00000aa0      0x130 ./Debug/gpdma_gpdma.c.o
 .debug_frame   0x00000bd0       0xe0 ./Debug/i2c_i2c.c.o
 .debug_frame   0x00000cb0       0x68 ./Debug/int_int.c.o
 .debug_frame   0x00000d18      0x26c ./Debug/lcd_lcdc.c.o
 .debug_frame   0x00000f84      0x178 ./Debug/lcd_osd.c.o
 .debug_frame   0x000010fc       0xec ./Debug/lcd_lcd_driver.c.o
 .debug_frame   0x000011e8      0x244 ./Debug/lcd_lcd_interface.c.o
 .debug_frame   0x0000142c       0xb8 ./Debug/lcd_lcd_nodisplay.c.o
 .debug_frame   0x000014e4       0x28 ./Debug/main_main.c.o
 .debug_frame   0x0000150c      0x27c ./Debug/menu_menu_display.c.o
 .debug_frame   0x00001788      0x490 ./Debug/menu_menu_setting.c.o
 .debug_frame   0x00001c18       0xe4 ./Debug/msg_adkey.c.o
 .debug_frame   0x00001cfc       0x60 ./Debug/msg_msg.c.o
 .debug_frame   0x00001d5c       0x58 ./Debug/play_avi_player.c.o
 .debug_frame   0x00001db4       0x58 ./Debug/play_gp_fifo.c.o
 .debug_frame   0x00001e0c       0x34 ./Debug/play_play_picture.c.o
 .debug_frame   0x00001e40      0x1b4 ./Debug/rtc_rtc.c.o
 .debug_frame   0x00001ff4       0x9c ./Debug/sd_sd_ext.c.o
 .debug_frame   0x00002090       0x80 ./Debug/sensor_sensor.c.o
 .debug_frame   0x00002110       0x6c ./Debug/sensor_sensor_gc0308.c.o
 .debug_frame   0x0000217c      0x1ec ./Debug/sys_sys.c.o
 .debug_frame   0x00002368       0xb0 ./Debug/timer_timer.c.o
 .debug_frame   0x00002418       0x60 ./Debug/timer_timer_isr.c.o
 .debug_frame   0x00002478       0xf8 ./Debug/uart_uart.c.o
 .debug_frame   0x00002570      0x170 ./Debug/spi_spi.c.o
 .debug_frame   0x000026e0      0x13c ./Debug/task_task.c.o
 .debug_frame   0x0000281c      0x1c4 ./Debug/task_task_video.c.o
 .debug_frame   0x000029e0      0x128 ./Debug/task_task_photo.c.o
 .debug_frame   0x00002b08      0x104 ./Debug/task_task_play.c.o
 .debug_frame   0x00002c0c       0x3c ./Debug/task_task_usb_device.c.o
 .debug_frame   0x00002c48       0xac ./Debug/task_task_holdMode.c.o
 .debug_frame   0x00002cf4      0x11c ./Debug/tvout_tvout.c.o
 .debug_frame   0x00002e10       0x50 ./Debug/led_led.c.o
 .debug_frame   0x00002e60       0x50 ./Debug/g_sensor_g_sensor_null.c.o
 .debug_frame   0x00002eb0       0x20 d:/MinGW-4.7.1/arm-elf/lib\libc.a(lib_a-strcpy.o)
 .debug_frame   0x00002ed0       0x20 d:/MinGW-4.7.1/arm-elf/lib\libc.a(lib_a-strlen.o)
 .debug_frame   0x00002ef0       0x28 d:/MinGW-4.7.1/lib/gcc/arm-elf/4.6.0\libgcc.a(_udivsi3.o)
 .debug_frame   0x00002f18       0x28 d:/MinGW-4.7.1/lib/gcc/arm-elf/4.6.0\libgcc.a(_divsi3.o)
 .debug_frame   0x00002f40       0x28 d:/MinGW-4.7.1/lib/gcc/arm-elf/4.6.0\libgcc.a(_umodsi3.o)
